(dp1
S'OriginalConfig'
p2
ccopy_reg
_reconstructor
p3
(cWMCore.Configuration
Configuration
p4
c__builtin__
object
p5
NtRp6
(dp7
S'Site'
p8
g3
(cWMCore.Configuration
ConfigSection
p9
g5
NtRp10
(dp11
S'_internal_skipChecks'
p12
I00
sS'_internal_documentation'
p13
S''
sS'_internal_settings'
p14
c__builtin__
set
p15
((lp16
S'ignoreGlobalBlacklist'
p17
aS'storageSite'
p18
atRp19
sS'_internal_name'
p20
g8
sS'_internal_docstrings'
p21
(dp22
sS'_internal_children'
p23
g15
((ltRp24
sg18
S'T2_CH_CERN'
p25
sg17
I01
sS'_internal_parent_ref'
p26
NsbsS'_internal_sections'
p27
(lp28
S'General'
p29
aS'JobType'
p30
aS'Data'
p31
ag8
aS'User'
p32
aS'Debug'
p33
asg29
g3
(g9
g5
NtRp34
(dp35
S'transferLogs'
p36
I01
sg12
I00
sg13
S''
sg14
g15
((lp37
g36
aS'transferOutputs'
p38
aS'workArea'
p39
aS'requestName'
p40
atRp41
sg20
g29
sg21
(dp42
sg38
I01
sg23
g15
((ltRp43
sg40
S'CAB_pPbHM0_I_took_our_jerbs_2_electric_boogaloo'
p44
sg26
Nsg39
S'CrabArea'
p45
sbsS'_internal_webapps'
p46
(lp47
sg32
g3
(g9
g5
NtRp48
(dp49
g12
I00
sg13
S''
sg14
g15
((ltRp50
sg20
g32
sg21
(dp51
sg23
g15
((ltRp52
sg26
NsbsS'_internal_components'
p53
(lp54
sg33
g3
(g9
g5
NtRp55
(dp56
g12
I00
sg13
S''
sg14
g15
((ltRp57
sg20
g33
sg21
(dp58
sg23
g15
((ltRp59
sg26
Nsbsg31
g3
(g9
g5
NtRp60
(dp61
S'inputDataset'
p62
S'/PAHighMultiplicity0/PARun2016C-PromptReco-v1/AOD'
p63
sS'allowNonValidInputDataset'
p64
I01
sg12
I00
sS'unitsPerJob'
p65
I20
sg13
S''
sg14
g15
((lp66
g62
ag64
aS'publication'
p67
ag65
aS'splitting'
p68
aS'lumiMask'
p69
aS'useParent'
p70
aS'outLFNDirBase'
p71
atRp72
sg20
g31
sg68
S'LumiBased'
p73
sg21
(dp74
sg70
I00
sg23
g15
((ltRp75
sg71
S'/store/group/phys_diffraction/cav/'
p76
sg26
Nsg69
S'/afs/cern.ch/cms/CAF/CMSCOMM/COMM_DQM/certification/Collisions16/13TeV/HI/Cert_285479-285832_HI8TeV_PromptReco_pPb_Collisions16_JSON_NoL1T.txt'
p77
sg67
I00
sbsg30
g3
(g9
g5
NtRp78
(dp79
g12
I00
sg13
S''
sg14
g15
((lp80
S'psetName'
p81
aS'pluginName'
p82
atRp83
sg20
g30
sg21
(dp84
sg82
S'Analysis'
p85
sg23
g15
((ltRp86
sg81
S'test.py'
p87
sg26
NsbsbsS'voGroup'
p88
S''
sS'Server'
p89
S'cmsweb.cern.ch'
p90
sS'instance'
p91
S'prod'
p92
sS'RequestName'
p93
V170706_143645:cavalosb_crab_CAB_pPbHM0_I_took_our_jerbs_2_electric_boogaloo
p94
sS'voRole'
p95
S'NULL'
p96
sS'Port'
p97
S''
s.