ccopy_reg
_reconstructor
p0
(cFWCore.ParameterSet.Config
Process
p1
c__builtin__
object
p2
Ntp3
Rp4
(dp5
S'CaloGeometryBuilder'
p6
g0
(cFWCore.ParameterSet.Modules
ESProducer
p7
g2
Ntp8
Rp9
(dp10
S'_Parameterizable__parameterNames'
p11
(lp12
S'SelectedCalos'
p13
asS'_isFrozen'
p14
I00
sS'_isModified'
p15
I00
sS'_lineNumber'
p16
I40
sS'_filename'
p17
S'/cvmfs/cms.cern.ch/slc6_amd64_gcc530/cms/cmssw/CMSSW_8_0_28/python/FWCore/ParameterSet/Modules.py'
p18
sg13
g0
(cFWCore.ParameterSet.Types
vstring
p19
c__builtin__
list
p20
(lp21
S'HCAL'
p22
aS'ZDC'
p23
aS'CASTOR'
p24
aS'EcalBarrel'
p25
aS'EcalEndcap'
p26
aS'EcalPreshower'
p27
aS'TOWER'
p28
atp29
Rp30
(dp31
g14
I00
sS'_ParameterTypeBase__isTracked'
p32
I01
sg15
I00
sS'_nPerLine'
p33
I1
sbsS'_Labelable__label'
p34
g6
sS'_TypedParameterizable__type'
p35
g6
sbsS'_Process__sequences'
p36
(dp37
S'endOfProcess_withComparison'
p38
g0
(cFWCore.ParameterSet.SequenceTypes
Sequence
p39
g2
Ntp40
Rp41
(dp42
g14
I00
sS'_seq'
p43
g0
(cFWCore.ParameterSet.SequenceTypes
_SequenceCollection
p44
g2
Ntp45
Rp46
(dp47
S'_collection'
p48
(lp49
g0
(cFWCore.ParameterSet.Modules
EDProducer
p50
g2
Ntp51
Rp52
(dp53
g11
(lp54
S'deleteAfterCopy'
p55
aS'Verbosity'
p56
aS'Frequency'
p57
aS'Name'
p58
aS'MEPathToSave'
p59
asg14
I00
sg15
I00
sg55
g0
(cFWCore.ParameterSet.Types
bool
p60
g2
Ntp61
Rp62
(dp63
g14
I00
sg32
I00
sS'_value'
p64
I01
sg15
I00
sbsg17
S'/cvmfs/cms.cern.ch/slc6_amd64_gcc530/cms/cmssw/CMSSW_8_0_28/python/DQMServices/Components/MEtoEDMConverter_cfi.py'
p65
sg56
g0
(cFWCore.ParameterSet.Types
int32
p66
g2
Ntp67
Rp68
(dp69
g14
I00
sg32
I00
sg64
I0
sg15
I00
sbsg57
g0
(g66
g2
Ntp70
Rp71
(dp72
g14
I00
sg32
I00
sg64
I50
sg15
I00
sbsg16
I10
sg34
S'MEtoEDMConverter'
p73
sg59
g0
(cFWCore.ParameterSet.Types
string
p74
g2
Ntp75
Rp76
(dp77
g14
I00
sg32
I00
sg64
S''
p78
sg15
I00
sbsg35
g73
sg58
g0
(g74
g2
Ntp79
Rp80
(dp81
g14
I00
sg32
I00
sg64
g73
sg15
I00
sbsbag0
(cFWCore.ParameterSet.Modules
EDAnalyzer
p82
g2
Ntp83
Rp84
(dp85
g11
(lp86
S'Diffgoodness'
p87
aS'processRef'
p88
aS'dirDepth'
p89
aS'KSgoodness'
p90
aS'runInstance'
p91
aS'MEtoEDMLabel'
p92
aS'autoProcess'
p93
aS'processNew'
p94
aS'OverAllgoodness'
p95
aS'lumiInstance'
p96
asg14
I00
sg87
g0
(cFWCore.ParameterSet.Types
double
p97
g2
Ntp98
Rp99
(dp100
g14
I00
sg32
I01
sg64
F0.1
sg15
I00
sbsg88
g0
(g74
g2
Ntp101
Rp102
(dp103
g14
I00
sg32
I01
sg64
S'HLT'
p104
sg15
I00
sbsg15
I00
sg16
I20
sg89
g0
(cFWCore.ParameterSet.Types
uint32
p105
g2
Ntp106
Rp107
(dp108
g14
I00
sg32
I01
sg64
I1
sg15
I00
sbsg17
S'/cvmfs/cms.cern.ch/slc6_amd64_gcc530/cms/cmssw/CMSSW_8_0_28/python/DQMServices/Components/MEtoMEComparitor_cfi.py'
p109
sg90
g0
(g97
g2
Ntp110
Rp111
(dp112
g14
I00
sg32
I01
sg64
F0.9
sg15
I00
sbsg91
g0
(g74
g2
Ntp113
Rp114
(dp115
g14
I00
sg32
I01
sg64
S'MEtoEDMConverterRun'
p116
sg15
I00
sbsg92
g0
(g74
g2
Ntp117
Rp118
(dp119
g14
I00
sg32
I01
sg64
g73
sg15
I00
sbsg96
g0
(g74
g2
Ntp120
Rp121
(dp122
g14
I00
sg32
I01
sg64
S'MEtoEDMConverterLumi'
p123
sg15
I00
sbsg93
g0
(g60
g2
Ntp124
Rp125
(dp126
g14
I00
sg32
I01
sg64
I01
sg15
I00
sbsg34
S'MEtoMEComparitor'
p127
sg94
g0
(g74
g2
Ntp128
Rp129
(dp130
g14
I00
sg32
I01
sg64
S'RERECO'
p131
sg15
I00
sbsg95
g0
(g97
g2
Ntp132
Rp133
(dp134
g14
I00
sg32
I01
sg64
F0.9
sg15
I00
sbsg35
g127
sbasbsg15
I00
sg34
g38
sbsS'hfCoincFilter'
p135
g0
(g39
g2
Ntp136
Rp137
(dp138
g14
I00
sg43
g0
(g44
g2
Ntp139
Rp140
(dp141
g48
(lp142
g0
(g50
g2
Ntp143
Rp144
(dp145
g11
(lp146
S'minimumE'
p147
aS'verbose'
p148
aS'minimumEt'
p149
aS'src'
p150
asg14
I00
sg148
g0
(g66
g2
Ntp151
Rp152
(dp153
g14
I00
sg32
I00
sg64
I0
sg15
I00
sbsg150
g0
(cFWCore.ParameterSet.Types
InputTag
p154
g2
Ntp155
Rp156
(dp157
g14
I00
sg32
I01
sg15
I00
sS'_InputTag__moduleLabel'
p158
S'towerMaker'
p159
sS'_InputTag__processName'
p160
g78
sS'_InputTag__productInstance'
p161
g78
sbsg17
S'/cvmfs/cms.cern.ch/slc6_amd64_gcc530/cms/cmssw/CMSSW_8_0_28/python/HeavyIonsAnalysis/Configuration/hfCoincFilter_cff.py'
p162
sg147
g0
(g97
g2
Ntp163
Rp164
(dp165
g14
I00
sg32
I01
sg64
F3.0
sg15
I00
sbsg16
I8
sg149
g0
(g97
g2
Ntp166
Rp167
(dp168
g14
I00
sg32
I01
sg64
F0.0
sg15
I00
sbsg34
S'towersAboveThreshold'
p169
sg35
S'CaloTowerCandidateCreator'
p170
sg15
I00
sbag0
(cFWCore.ParameterSet.Modules
EDFilter
p171
g2
Ntp172
Rp173
(dp174
g11
(lp175
g150
aS'etaMin'
p176
aS'etaMax'
p177
aS'ptMin'
p178
asg14
I00
sg15
I00
sg150
g0
(g154
g2
Ntp179
Rp180
(dp181
g14
I00
sg32
I01
sg15
I00
sg158
g169
sg160
g78
sg161
g78
sbsg17
g162
sg176
g0
(g97
g2
Ntp182
Rp183
(dp184
g14
I00
sg32
I01
sg64
F3.0
sg15
I00
sbsg16
I16
sg178
g0
(g97
g2
Ntp185
Rp186
(dp187
g14
I00
sg32
I01
sg64
I0
sg15
I00
sbsg34
S'hfPosTowers'
p188
sg177
g0
(g97
g2
Ntp189
Rp190
(dp191
g14
I00
sg32
I01
sg64
F6.0
sg15
I00
sbsg35
S'EtaPtMinCandSelector'
p192
sbag0
(g171
g2
Ntp193
Rp194
(dp195
g11
(lp196
g150
ag176
ag177
ag178
asg14
I00
sg15
I00
sg150
g0
(g154
g2
Ntp197
Rp198
(dp199
g14
I00
sg32
I01
sg15
I00
sg158
g169
sg160
g78
sg161
g78
sbsg17
g162
sg176
g0
(g97
g2
Ntp200
Rp201
(dp202
g14
I00
sg32
I01
sg64
F-6.0
sg15
I00
sbsg16
I24
sg178
g0
(g97
g2
Ntp203
Rp204
(dp205
g14
I00
sg32
I01
sg64
I0
sg15
I00
sbsg34
S'hfNegTowers'
p206
sg177
g0
(g97
g2
Ntp207
Rp208
(dp209
g14
I00
sg32
I01
sg64
F-3.0
sg15
I00
sbsg35
g192
sbag0
(g171
g2
Ntp210
Rp211
(dp212
g11
(lp213
g150
aS'minNumber'
p214
asg14
I00
sg15
I00
sg214
g0
(g105
g2
Ntp215
Rp216
(dp217
g14
I00
sg32
I01
sg64
I1
sg15
I00
sbsg150
g0
(g154
g2
Ntp218
Rp219
(dp220
g14
I00
sg32
I01
sg15
I00
sg158
g188
sg160
g78
sg161
g78
sbsg17
g162
sg16
I30
sg34
S'hfPosFilter'
p221
sg35
S'CandCountFilter'
p222
sbag0
(g171
g2
Ntp223
Rp224
(dp225
g11
(lp226
g150
ag214
asg14
I00
sg15
I00
sg214
g0
(g105
g2
Ntp227
Rp228
(dp229
g14
I00
sg32
I01
sg64
I1
sg15
I00
sbsg150
g0
(g154
g2
Ntp230
Rp231
(dp232
g14
I00
sg32
I01
sg15
I00
sg158
g206
sg160
g78
sg161
g78
sbsg17
g162
sg16
I36
sg34
S'hfNegFilter'
p233
sg35
g222
sbasbsg15
I00
sg34
g135
sbsS'vectMonW'
p234
g0
(g39
g2
Ntp235
Rp236
(dp237
g14
I00
sg43
g0
(g44
g2
Ntp238
Rp239
(dp240
g48
(lp241
g0
(g82
g2
Ntp242
Rp243
(dp244
g11
(lp245
S'start'
p246
ag150
aS'end'
p247
aS'Nbins'
p248
asg14
I00
sg247
g0
(g97
g2
Ntp249
Rp250
(dp251
g14
I00
sg32
I00
sg64
I600
sg15
I00
sbsg15
I00
sg248
g0
(g66
g2
Ntp252
Rp253
(dp254
g14
I00
sg32
I00
sg64
I600
sg15
I00
sbsg150
g0
(g154
g2
Ntp255
Rp256
(dp257
g14
I00
sg32
I00
sg15
I00
sg158
S'Noff'
p258
sg160
g78
sg161
g78
sbsg17
S'/afs/cern.ch/work/c/cavalosb/rA/CMSSW_8_0_22/src/QW/UPCridgeAnalysis/python/pPb_HM_eff.py'
p259
sg246
g0
(g97
g2
Ntp260
Rp261
(dp262
g14
I00
sg32
I00
sg64
I0
sg15
I00
sbsg16
I30
sg34
S'histNoff'
p263
sg35
S'QWHistAnalyzer'
p264
sbag0
(g82
g2
Ntp265
Rp266
(dp267
g11
(lp268
g150
aS'hend'
p269
aS'hstart'
p270
aS'cNbins'
p271
aS'cstart'
p272
aS'hNbins'
p273
aS'cend'
p274
asg14
I00
sg271
g0
(g66
g2
Ntp275
Rp276
(dp277
g14
I00
sg32
I00
sg64
I1000
sg15
I00
sbsg15
I00
sg150
g0
(g154
g2
Ntp278
Rp279
(dp280
g14
I00
sg32
I00
sg15
I00
sg158
S'QWEvent'
p281
sg160
g78
sg161
S'phi'
p282
sbsg17
g259
sg270
g0
(g97
g2
Ntp283
Rp284
(dp285
g14
I00
sg32
I00
sg64
I0
sg15
I00
sbsg269
g0
(g97
g2
Ntp286
Rp287
(dp288
g14
I00
sg32
I00
sg64
I5000
sg15
I00
sbsg272
g0
(g97
g2
Ntp289
Rp290
(dp291
g14
I00
sg32
I00
sg64
F-3.141592653589793
sg15
I00
sbsg16
I40
sg274
g0
(g97
g2
Ntp292
Rp293
(dp294
g14
I00
sg32
I00
sg64
F3.141592653589793
sg15
I00
sbsg34
S'vectPhi'
p295
sg273
g0
(g66
g2
Ntp296
Rp297
(dp298
g14
I00
sg32
I00
sg64
I5000
sg15
I00
sbsg35
S'QWVectorAnalyzer'
p299
sbag0
(g82
g2
Ntp300
Rp301
(dp302
g11
(lp303
g150
ag269
ag270
ag271
ag272
ag273
ag274
asg14
I00
sg271
g0
(g66
g2
Ntp304
Rp305
(dp306
g14
I00
sg32
I00
sg64
I1000
sg15
I00
sbsg15
I00
sg150
g0
(g154
g2
Ntp307
Rp308
(dp309
g14
I00
sg32
I00
sg15
I00
sg158
g281
sg160
g78
sg161
S'pt'
p310
sbsg17
g259
sg270
g0
(g97
g2
Ntp311
Rp312
(dp313
g14
I00
sg32
I00
sg64
I0
sg15
I00
sbsg269
g0
(g97
g2
Ntp314
Rp315
(dp316
g14
I00
sg32
I00
sg64
I5000
sg15
I00
sbsg272
g0
(g97
g2
Ntp317
Rp318
(dp319
g14
I00
sg32
I00
sg64
I0
sg15
I00
sbsg16
I50
sg274
g0
(g97
g2
Ntp320
Rp321
(dp322
g14
I00
sg32
I00
sg64
I5
sg15
I00
sbsg34
S'vectPt'
p323
sg273
g0
(g66
g2
Ntp324
Rp325
(dp326
g14
I00
sg32
I00
sg64
I5000
sg15
I00
sbsg35
g299
sbag0
(g82
g2
Ntp327
Rp328
(dp329
g11
(lp330
g150
ag269
ag270
ag271
ag272
ag273
ag274
asg14
I00
sg271
g0
(g66
g2
Ntp331
Rp332
(dp333
g14
I00
sg32
I00
sg64
I1000
sg15
I00
sbsg15
I00
sg150
g0
(g154
g2
Ntp334
Rp335
(dp336
g14
I00
sg32
I00
sg15
I00
sg158
g281
sg160
g78
sg161
S'eta'
p337
sbsg17
g259
sg270
g0
(g97
g2
Ntp338
Rp339
(dp340
g14
I00
sg32
I00
sg64
I0
sg15
I00
sbsg269
g0
(g97
g2
Ntp341
Rp342
(dp343
g14
I00
sg32
I00
sg64
I5000
sg15
I00
sbsg272
g0
(g97
g2
Ntp344
Rp345
(dp346
g14
I00
sg32
I00
sg64
F-2.5
sg15
I00
sbsg16
I60
sg274
g0
(g97
g2
Ntp347
Rp348
(dp349
g14
I00
sg32
I00
sg64
F2.5
sg15
I00
sbsg34
S'vectEta'
p350
sg273
g0
(g66
g2
Ntp351
Rp352
(dp353
g14
I00
sg32
I00
sg64
I5000
sg15
I00
sbsg35
g299
sbag0
(g82
g2
Ntp354
Rp355
(dp356
g11
(lp357
g150
ag271
ag270
ag269
ag272
aS'srcW'
p358
ag273
ag274
asg14
I00
sg269
g0
(g97
g2
Ntp359
Rp360
(dp361
g14
I00
sg32
I00
sg64
I5000
sg15
I00
sbsg15
I00
sg150
g0
(g154
g2
Ntp362
Rp363
(dp364
g14
I00
sg32
I00
sg15
I00
sg158
g281
sg161
g282
sg160
g78
sbsg17
g259
sg270
g0
(g97
g2
Ntp365
Rp366
(dp367
g14
I00
sg32
I00
sg64
I0
sg15
I00
sbsg271
g0
(g66
g2
Ntp368
Rp369
(dp370
g14
I00
sg32
I00
sg64
I1000
sg15
I00
sbsg272
g0
(g97
g2
Ntp371
Rp372
(dp373
g14
I00
sg32
I00
sg64
F-3.141592653589793
sg15
I00
sbsg274
g0
(g97
g2
Ntp374
Rp375
(dp376
g14
I00
sg32
I00
sg64
F3.141592653589793
sg15
I00
sbsg16
I64
sg358
g0
(g154
g2
Ntp377
Rp378
(dp379
g14
I00
sg32
I00
sg15
I00
sg158
g281
sg160
g78
sg161
S'weight'
p380
sbsg34
S'vectPhiW'
p381
sg273
g0
(g66
g2
Ntp382
Rp383
(dp384
g14
I00
sg32
I00
sg64
I5000
sg15
I00
sbsg35
g299
sbag0
(g82
g2
Ntp385
Rp386
(dp387
g11
(lp388
g150
ag271
ag270
ag269
ag272
ag358
ag273
ag274
asg14
I00
sg269
g0
(g97
g2
Ntp389
Rp390
(dp391
g14
I00
sg32
I00
sg64
I5000
sg15
I00
sbsg15
I00
sg150
g0
(g154
g2
Ntp392
Rp393
(dp394
g14
I00
sg32
I00
sg15
I00
sg158
g281
sg161
g310
sg160
g78
sbsg17
g259
sg270
g0
(g97
g2
Ntp395
Rp396
(dp397
g14
I00
sg32
I00
sg64
I0
sg15
I00
sbsg271
g0
(g66
g2
Ntp398
Rp399
(dp400
g14
I00
sg32
I00
sg64
I1000
sg15
I00
sbsg272
g0
(g97
g2
Ntp401
Rp402
(dp403
g14
I00
sg32
I00
sg64
I0
sg15
I00
sbsg274
g0
(g97
g2
Ntp404
Rp405
(dp406
g14
I00
sg32
I00
sg64
I5
sg15
I00
sbsg16
I63
sg358
g0
(g154
g2
Ntp407
Rp408
(dp409
g14
I00
sg32
I00
sg15
I00
sg158
g281
sg160
g78
sg161
g380
sbsg34
S'vectPtW'
p410
sg273
g0
(g66
g2
Ntp411
Rp412
(dp413
g14
I00
sg32
I00
sg64
I5000
sg15
I00
sbsg35
g299
sbag0
(g82
g2
Ntp414
Rp415
(dp416
g11
(lp417
g150
ag271
ag270
ag269
ag272
ag358
ag273
ag274
asg14
I00
sg269
g0
(g97
g2
Ntp418
Rp419
(dp420
g14
I00
sg32
I00
sg64
I5000
sg15
I00
sbsg15
I00
sg150
g0
(g154
g2
Ntp421
Rp422
(dp423
g14
I00
sg32
I00
sg15
I00
sg158
g281
sg161
g337
sg160
g78
sbsg17
g259
sg270
g0
(g97
g2
Ntp424
Rp425
(dp426
g14
I00
sg32
I00
sg64
I0
sg15
I00
sbsg271
g0
(g66
g2
Ntp427
Rp428
(dp429
g14
I00
sg32
I00
sg64
I1000
sg15
I00
sbsg272
g0
(g97
g2
Ntp430
Rp431
(dp432
g14
I00
sg32
I00
sg64
F-2.5
sg15
I00
sbsg274
g0
(g97
g2
Ntp433
Rp434
(dp435
g14
I00
sg32
I00
sg64
F2.5
sg15
I00
sbsg16
I62
sg358
g0
(g154
g2
Ntp436
Rp437
(dp438
g14
I00
sg32
I00
sg15
I00
sg158
g281
sg160
g78
sg161
g380
sbsg34
S'vectEtaW'
p439
sg273
g0
(g66
g2
Ntp440
Rp441
(dp442
g14
I00
sg32
I00
sg64
I5000
sg15
I00
sbsg35
g299
sbasbsg15
I00
sg34
g234
sbsS'makeEvent'
p443
g0
(g39
g2
Ntp444
Rp445
(dp446
g14
I00
sg43
g0
(g44
g2
Ntp447
Rp448
(dp449
g48
(lp450
g0
(g50
g2
Ntp451
Rp452
(dp453
g11
(lp454
S'trackSrc'
p455
aS'vertexSrc'
p456
asg14
I00
sg15
I00
sg455
g0
(g154
g2
Ntp457
Rp458
(dp459
g14
I00
sg32
I00
sg15
I00
sg158
S'generalTracks'
p460
sg160
g78
sg161
g78
sbsg17
g259
sg16
I5
sg456
g0
(g154
g2
Ntp461
Rp462
(dp463
g14
I00
sg32
I00
sg15
I00
sg158
S'offlinePrimaryVertices'
p464
sg160
g78
sg161
g78
sbsg34
g258
sg35
S'QWNtrkOfflineProducer'
p465
sbag0
(g50
g2
Ntp466
Rp467
(dp468
g11
(lp469
g455
aS'ptMax'
p470
aS'centralitySrc'
p471
aS'Etamin'
p472
aS'pterrorpt'
p473
aS'dzdzerror'
p474
ag456
aS'fweight'
p475
aS'd0d0error'
p476
aS'Etamax'
p477
ag178
asg14
I00
sg476
g0
(g97
g2
Ntp478
Rp479
(dp480
g14
I00
sg32
I00
sg64
F3.0
sg15
I00
sbsg15
I01
sg455
g0
(g154
g2
Ntp481
Rp482
(dp483
g14
I00
sg32
I00
sg15
I00
sg158
g460
sg160
g78
sg161
g78
sbsg477
g0
(g97
g2
Ntp484
Rp485
(dp486
g14
I00
sg32
I00
sg64
F2.4
sg15
I00
sbsg178
g0
(g97
g2
Ntp487
Rp488
(dp489
g14
I00
sg32
I00
sg64
F0.3
sg15
I00
sbsg472
g0
(g97
g2
Ntp490
Rp491
(dp492
g14
I00
sg32
I00
sg64
F-2.4
sg15
I00
sbsg473
g0
(g97
g2
Ntp493
Rp494
(dp495
g14
I00
sg32
I00
sg64
F0.1
sg15
I00
sbsg16
I20
sg474
g0
(g97
g2
Ntp496
Rp497
(dp498
g14
I00
sg32
I00
sg64
F3.0
sg15
I00
sbsg17
g259
sg34
g281
sg475
g0
(g154
g2
Ntp499
Rp500
(dp501
g14
I00
sg32
I00
sg15
I00
sg158
S'NA'
p502
sg160
g78
sg161
g78
sbsg470
g0
(g97
g2
Ntp503
Rp504
(dp505
g14
I00
sg32
I00
sg64
F3.0
sg15
I00
sbsg471
g0
(g154
g2
Ntp506
Rp507
(dp508
g14
I00
sg32
I00
sg15
I00
sg158
g258
sg160
g78
sg161
g78
sbsg35
S'QWEventProducer'
p509
sg456
g0
(g154
g2
Ntp510
Rp511
(dp512
g14
I00
sg32
I00
sg15
I00
sg158
g464
sg160
g78
sg161
g78
sbsbasbsg15
I00
sg34
g443
sbsS'vectMon'
p513
g0
(g39
g2
Ntp514
Rp515
(dp516
g14
I00
sg43
g0
(g44
g2
Ntp517
Rp518
(dp519
g48
(lp520
g243
ag266
ag301
ag328
asbsg15
I00
sg34
g513
sbsS'endOfProcess'
p521
g0
(g39
g2
Ntp522
Rp523
(dp524
g14
I00
sg43
g0
(g44
g2
Ntp525
Rp526
(dp527
g48
(lp528
g52
asbsg15
I00
sg34
g521
sbsS'eventSelection'
p529
g0
(g39
g2
Ntp530
Rp531
(dp532
g14
I00
sg43
g0
(g44
g2
Ntp533
Rp534
(dp535
g48
(lp536
g137
ag0
(g171
g2
Ntp537
Rp538
(dp539
g11
(lp540
S'filter'
p541
ag150
aS'cut'
p542
asg14
I00
sg542
g0
(g74
g2
Ntp543
Rp544
(dp545
g14
I00
sg32
I01
sg64
S'!isFake && abs(z) <= 25 && position.Rho <= 2 && tracksSize >= 2'
p546
sg15
I00
sbsg15
I00
sg150
g0
(g154
g2
Ntp547
Rp548
(dp549
g14
I00
sg32
I01
sg15
I00
sg158
g464
sg160
g78
sg161
g78
sbsg17
S'/afs/cern.ch/work/c/cavalosb/rA/CMSSW_8_0_22/src/QW/UPCridgeAnalysis/python/test.py'
p550
sg541
g0
(g60
g2
Ntp551
Rp552
(dp553
g14
I00
sg32
I01
sg64
I01
sg15
I00
sbsg16
I97
sg34
S'PAprimaryVertexFilter'
p554
sg35
S'VertexSelector'
p555
sbag0
(g171
g2
Ntp556
Rp557
(dp558
g11
(lp559
S'debugOn'
p560
aS'thresh'
p561
aS'numtrack'
p562
aS'applyfilter'
p563
asg14
I00
sg15
I00
sg560
g0
(g60
g2
Ntp564
Rp565
(dp566
g14
I00
sg32
I00
sg64
I00
sg15
I00
sbsg563
g0
(g60
g2
Ntp567
Rp568
(dp569
g14
I00
sg32
I00
sg64
I01
sg15
I00
sbsg16
I104
sg561
g0
(g97
g2
Ntp570
Rp571
(dp572
g14
I00
sg32
I00
sg64
F0.25
sg15
I00
sbsg562
g0
(g105
g2
Ntp573
Rp574
(dp575
g14
I00
sg32
I00
sg64
I10
sg15
I00
sbsg17
g550
sg34
S'NoScraping'
p576
sg35
S'FilterOutScraping'
p577
sbasbsg15
I00
sg34
g529
sbsS'hfCoincFilter3'
p578
g0
(g39
g2
Ntp579
Rp580
(dp581
g14
I00
sg43
g0
(g44
g2
Ntp582
Rp583
(dp584
g48
(lp585
g144
ag173
ag194
ag0
(g171
g2
Ntp586
Rp587
(dp588
g11
(lp589
g150
ag214
asg14
I00
sg15
I00
sg214
g0
(g105
g2
Ntp590
Rp591
(dp592
g14
I00
sg32
I01
sg64
I3
sg15
I00
sbsg150
g0
(g154
g2
Ntp593
Rp594
(dp595
g14
I00
sg32
I01
sg15
I00
sg158
g188
sg161
g78
sg160
g78
sbsg17
g162
sg16
I50
sg34
S'hfPosFilter3'
p596
sg35
g222
sbag0
(g171
g2
Ntp597
Rp598
(dp599
g11
(lp600
g150
ag214
asg14
I00
sg15
I00
sg214
g0
(g105
g2
Ntp601
Rp602
(dp603
g14
I00
sg32
I01
sg64
I3
sg15
I00
sbsg150
g0
(g154
g2
Ntp604
Rp605
(dp606
g14
I00
sg32
I01
sg15
I00
sg158
g206
sg161
g78
sg160
g78
sbsg17
g162
sg16
I51
sg34
S'hfNegFilter3'
p607
sg35
g222
sbasbsg15
I00
sg34
g578
sbssg381
g355
sS'path185'
p608
g0
(cFWCore.ParameterSet.SequenceTypes
Path
p609
g2
Ntp610
Rp611
(dp612
g14
I00
sg43
g0
(g44
g2
Ntp613
Rp614
(dp615
g48
(lp616
g0
(g171
g2
Ntp617
Rp618
(dp619
g11
(lp620
S'eventSetupPathsKey'
p621
aS'andOr'
p622
aS'HLTPaths'
p623
aS'throw'
p624
aS'TriggerResultsTag'
p625
asg14
I00
sg623
g0
(g19
g20
(lp626
S'HLT_PAFullTracks_Multiplicity185_*'
p627
atp628
Rp629
(dp630
g14
I00
sg32
I01
sg15
I01
sg33
I1
sbsg15
I01
sg16
I57
sg17
g550
sg34
S'hltHM185'
p631
sg621
g0
(g74
g2
Ntp632
Rp633
(dp634
g14
I00
sg32
I01
sg64
g78
sg15
I00
sbsg625
g0
(g154
g2
Ntp635
Rp636
(dp637
g14
I00
sg32
I01
sg15
I00
sg158
S'TriggerResults'
p638
sg161
g78
sg160
g104
sbsg624
g0
(g60
g2
Ntp639
Rp640
(dp641
g14
I00
sg32
I01
sg64
I00
sg15
I00
sbsg35
S'HLTHighLevel'
p642
sg622
g0
(g60
g2
Ntp643
Rp644
(dp645
g14
I00
sg32
I01
sg64
I01
sg15
I00
sbsbag531
ag452
ag0
(g171
g2
Ntp646
Rp647
(dp648
g11
(lp649
S'BinLabel'
p650
aS'selectedBins'
p651
asg14
I00
sg15
I00
sg16
I132
sg17
g550
sg650
g0
(g154
g2
Ntp652
Rp653
(dp654
g14
I00
sg32
I01
sg15
I00
sg158
g258
sg160
g78
sg161
g78
sbsg34
S'ppNoffFilter185'
p655
sg651
g0
(cFWCore.ParameterSet.Types
vint32
p656
g20
(lp657
I185
aI186
aI187
aI188
aI189
aI190
aI191
aI192
aI193
aI194
aI195
aI196
aI197
aI198
aI199
aI200
aI201
aI202
aI203
aI204
aI205
aI206
aI207
aI208
aI209
aI210
aI211
aI212
aI213
aI214
aI215
aI216
aI217
aI218
aI219
aI220
aI221
aI222
aI223
aI224
aI225
aI226
aI227
aI228
aI229
aI230
aI231
aI232
aI233
aI234
aI235
aI236
aI237
aI238
aI239
aI240
aI241
aI242
aI243
aI244
aI245
aI246
aI247
aI248
aI249
atp658
Rp659
(dp660
g14
I00
sg32
I01
sg15
I00
sbsg35
S'CentralityFilter'
p661
sbag467
ag515
ag0
(g82
g2
Ntp662
Rp663
(dp664
g11
(lp665
g270
ag269
aS'srcVz'
p666
aS'srcEta'
p667
aS'srcPhi'
p668
ag273
asg14
I00
sg15
I00
sg16
I162
sg17
g550
sg270
g0
(g97
g2
Ntp669
Rp670
(dp671
g14
I00
sg32
I00
sg64
I0
sg15
I00
sbsg269
g0
(g97
g2
Ntp672
Rp673
(dp674
g14
I00
sg32
I00
sg64
I5000
sg15
I00
sbsg666
g0
(g154
g2
Ntp675
Rp676
(dp677
g14
I00
sg32
I00
sg15
I00
sg158
g281
sg161
S'vz'
p678
sg160
g78
sbsg667
g0
(g154
g2
Ntp679
Rp680
(dp681
g14
I00
sg32
I00
sg15
I00
sg158
g281
sg161
g337
sg160
g78
sbsg668
g0
(g154
g2
Ntp682
Rp683
(dp684
g14
I00
sg32
I00
sg15
I00
sg158
g281
sg161
g282
sg160
g78
sbsg34
S'corr2D185'
p685
sg273
g0
(g66
g2
Ntp686
Rp687
(dp688
g14
I00
sg32
I00
sg64
I5000
sg15
I00
sbsg35
S'CAQW2DAnalyzer'
p689
sbasbsg15
I00
sg34
g608
sbsS'_Process__source'
p690
g0
(cFWCore.ParameterSet.Modules
Source
p691
g2
Ntp692
Rp693
(dp694
g11
(lp695
S'fileNames'
p696
asg14
I00
sg15
I00
sg16
I175
sg17
g18
sg696
g0
(g19
g20
(lp697
S'file:/afs/cern.ch/work/q/qwang/public/00647CA3-B2B3-E611-9F32-02163E01459C.root'
p698
atp699
Rp700
(dp701
g14
I00
sg32
I00
sg15
I00
sg33
I1
sbsg35
S'PoolSource'
p702
sbsS'ppNoffFilter150'
p703
g0
(g171
g2
Ntp704
Rp705
(dp706
g11
(lp707
g650
ag651
asg14
I00
sg15
I00
sg16
I125
sg17
g550
sg650
g0
(g154
g2
Ntp708
Rp709
(dp710
g14
I00
sg32
I01
sg15
I00
sg158
g258
sg160
g78
sg161
g78
sbsg34
g703
sg651
g0
(g656
g20
(lp711
I150
aI151
aI152
aI153
aI154
aI155
aI156
aI157
aI158
aI159
aI160
aI161
aI162
aI163
aI164
aI165
aI166
aI167
aI168
aI169
aI170
aI171
aI172
aI173
aI174
aI175
aI176
aI177
aI178
aI179
aI180
aI181
aI182
aI183
aI184
atp712
Rp713
(dp714
g14
I00
sg32
I01
sg15
I00
sbsg35
g661
sbsg631
g618
sS'corr2D250'
p715
g0
(g82
g2
Ntp716
Rp717
(dp718
g11
(lp719
g270
ag269
ag666
ag667
ag668
ag273
asg14
I00
sg15
I00
sg16
I163
sg17
g550
sg270
g0
(g97
g2
Ntp720
Rp721
(dp722
g14
I00
sg32
I00
sg64
I0
sg15
I00
sbsg269
g0
(g97
g2
Ntp723
Rp724
(dp725
g14
I00
sg32
I00
sg64
I5000
sg15
I00
sbsg666
g0
(g154
g2
Ntp726
Rp727
(dp728
g14
I00
sg32
I00
sg15
I00
sg158
g281
sg161
g678
sg160
g78
sbsg667
g0
(g154
g2
Ntp729
Rp730
(dp731
g14
I00
sg32
I00
sg15
I00
sg158
g281
sg161
g337
sg160
g78
sbsg668
g0
(g154
g2
Ntp732
Rp733
(dp734
g14
I00
sg32
I00
sg15
I00
sg158
g281
sg161
g282
sg160
g78
sbsg34
g715
sg273
g0
(g66
g2
Ntp735
Rp736
(dp737
g14
I00
sg32
I00
sg64
I5000
sg15
I00
sbsg35
g689
sbsS'XMLFromDBSource'
p738
g0
(g7
g2
Ntp739
Rp740
(dp741
g11
(lp742
S'rootDDName'
p743
aS'label'
p744
asg14
I00
sg15
I00
sg16
I40
sg17
g18
sg743
g0
(g74
g2
Ntp745
Rp746
(dp747
g14
I00
sg32
I01
sg64
S'cms:OCMS'
p748
sg15
I00
sbsg744
g0
(g74
g2
Ntp749
Rp750
(dp751
g14
I00
sg32
I01
sg64
S'Extended'
p752
sg15
I00
sbsg34
g738
sg35
S'XMLIdealGeometryESProducer'
p753
sbsg350
g328
sS'corr2D150'
p754
g0
(g82
g2
Ntp755
Rp756
(dp757
g11
(lp758
g270
ag269
ag666
ag667
ag668
ag273
asg14
I00
sg15
I00
sg16
I161
sg17
g550
sg270
g0
(g97
g2
Ntp759
Rp760
(dp761
g14
I00
sg32
I00
sg64
I0
sg15
I00
sbsg269
g0
(g97
g2
Ntp762
Rp763
(dp764
g14
I00
sg32
I00
sg64
I5000
sg15
I00
sbsg666
g0
(g154
g2
Ntp765
Rp766
(dp767
g14
I00
sg32
I00
sg15
I00
sg158
g281
sg161
g678
sg160
g78
sbsg667
g0
(g154
g2
Ntp768
Rp769
(dp770
g14
I00
sg32
I00
sg15
I00
sg158
g281
sg161
g337
sg160
g78
sbsg668
g0
(g154
g2
Ntp771
Rp772
(dp773
g14
I00
sg32
I00
sg15
I00
sg158
g281
sg161
g282
sg160
g78
sbsg34
g754
sg273
g0
(g66
g2
Ntp774
Rp775
(dp776
g14
I00
sg32
I00
sg64
I5000
sg15
I00
sbsg35
g689
sbsg38
g41
sS'TFileService'
p777
g0
(cFWCore.ParameterSet.Modules
Service
p778
g2
Ntp779
Rp780
(dp781
g11
(lp782
S'fileName'
p783
asg14
I00
sg15
I00
sg16
I10
sg17
g18
sg783
g0
(g74
g2
Ntp784
Rp785
(dp786
g14
I00
sg32
I01
sg64
S'outW280.root'
p787
sg15
I00
sbsg35
g777
sbsS'hcalDDDSimConstants'
p788
g0
(g7
g2
Ntp789
Rp790
(dp791
g11
(lp792
S'appendToDataLabel'
p793
asg14
I00
sg793
g0
(g74
g2
Ntp794
Rp795
(dp796
g14
I00
sg32
I01
sg64
g78
sg15
I00
sbsg15
I00
sg16
I40
sg17
g18
sg34
g788
sg35
S'HcalDDDSimConstantsESModule'
p797
sbsS'source'
p798
g693
sS'hltHM120'
p799
g0
(g171
g2
Ntp800
Rp801
(dp802
g11
(lp803
g621
ag622
ag623
ag624
ag625
asg14
I00
sg623
g0
(g19
g20
(lp804
S'HLT_PAFullTracks_Multiplicity120_v*'
p805
atp806
Rp807
(dp808
g14
I00
sg32
I01
sg15
I01
sg33
I1
sbsg15
I01
sg16
I33
sg17
g550
sg34
g799
sg621
g0
(g74
g2
Ntp809
Rp810
(dp811
g14
I00
sg32
I01
sg64
g78
sg15
I00
sbsg625
g0
(g154
g2
Ntp812
Rp813
(dp814
g14
I00
sg32
I01
sg15
I00
sg158
g638
sg161
g78
sg160
g104
sbsg624
g0
(g60
g2
Ntp815
Rp816
(dp817
g14
I00
sg32
I01
sg64
I00
sg15
I00
sbsg35
g642
sg622
g0
(g60
g2
Ntp818
Rp819
(dp820
g14
I00
sg32
I01
sg64
I01
sg15
I00
sbsbsS'RandomNumberGeneratorService'
p821
g0
(g778
g2
Ntp822
Rp823
(dp824
g14
I00
sS'horeco'
p825
g0
(cFWCore.ParameterSet.Types
PSet
p826
g2
Ntp827
Rp828
(dp829
g14
I00
sg32
I01
sg15
I00
sS'initialSeed'
p830
g0
(g105
g2
Ntp831
Rp832
(dp833
g14
I00
sg32
I00
sg64
I541321
sg15
I00
sbsg11
(lp834
g830
aS'engineName'
p835
asg835
g0
(g74
g2
Ntp836
Rp837
(dp838
g14
I00
sg32
I00
sg64
S'TRandom3'
p839
sg15
I00
sbsbsg16
I10
sS'paramMuons'
p840
g0
(g826
g2
Ntp841
Rp842
(dp843
g14
I00
sg32
I01
sg15
I00
sg830
g0
(g105
g2
Ntp844
Rp845
(dp846
g14
I00
sg32
I00
sg64
I54525
sg15
I00
sbsg11
(lp847
g830
ag835
asg835
g0
(g74
g2
Ntp848
Rp849
(dp850
g14
I00
sg32
I00
sg64
g839
sg15
I00
sbsbsS'saveFileName'
p851
g0
(g74
g2
Ntp852
Rp853
(dp854
g14
I00
sg32
I00
sg64
g78
sg15
I00
sbsS'hbhereco'
p855
g0
(g826
g2
Ntp856
Rp857
(dp858
g14
I00
sg32
I01
sg15
I00
sg830
g0
(g105
g2
Ntp859
Rp860
(dp861
g14
I00
sg32
I00
sg64
I541321
sg15
I00
sbsg11
(lp862
g830
ag835
asg835
g0
(g74
g2
Ntp863
Rp864
(dp865
g14
I00
sg32
I00
sg64
g839
sg15
I00
sbsbsS'simSiStripDigiSimLink'
p866
g0
(g826
g2
Ntp867
Rp868
(dp869
g14
I00
sg32
I01
sg15
I00
sg830
g0
(g105
g2
Ntp870
Rp871
(dp872
g14
I00
sg32
I00
sg64
I1234567
sg15
I00
sbsg11
(lp873
g830
ag835
asg835
g0
(g74
g2
Ntp874
Rp875
(dp876
g14
I00
sg32
I00
sg64
S'HepJamesRandom'
p877
sg15
I00
sbsbsS'externalLHEProducer'
p878
g0
(g826
g2
Ntp879
Rp880
(dp881
g14
I00
sg32
I01
sg15
I00
sg830
g0
(g105
g2
Ntp882
Rp883
(dp884
g14
I00
sg32
I00
sg64
I234567
sg15
I00
sbsg11
(lp885
g830
ag835
asg835
g0
(g74
g2
Ntp886
Rp887
(dp888
g14
I00
sg32
I00
sg64
g877
sg15
I00
sbsbsS'famosPileUp'
p889
g0
(g826
g2
Ntp890
Rp891
(dp892
g14
I00
sg32
I01
sg15
I00
sg830
g0
(g105
g2
Ntp893
Rp894
(dp895
g14
I00
sg32
I00
sg64
I918273
sg15
I00
sbsg11
(lp896
g830
ag835
asg835
g0
(g74
g2
Ntp897
Rp898
(dp899
g14
I00
sg32
I00
sg64
g839
sg15
I00
sbsbsS'simMuonDTDigis'
p900
g0
(g826
g2
Ntp901
Rp902
(dp903
g14
I00
sg32
I01
sg15
I00
sg830
g0
(g105
g2
Ntp904
Rp905
(dp906
g14
I00
sg32
I00
sg64
I1234567
sg15
I00
sbsg11
(lp907
g830
ag835
asg835
g0
(g74
g2
Ntp908
Rp909
(dp910
g14
I00
sg32
I00
sg64
g877
sg15
I00
sbsbsg35
g821
sS'siTrackerGaussianSmearingRecHits'
p911
g0
(g826
g2
Ntp912
Rp913
(dp914
g14
I00
sg32
I01
sg15
I00
sg830
g0
(g105
g2
Ntp915
Rp916
(dp917
g14
I00
sg32
I00
sg64
I24680
sg15
I00
sbsg11
(lp918
g830
ag835
asg835
g0
(g74
g2
Ntp919
Rp920
(dp921
g14
I00
sg32
I00
sg64
g839
sg15
I00
sbsbsg11
(lp922
g825
ag840
ag851
ag855
ag866
ag878
ag889
ag900
ag911
aS'ecalPreshowerRecHit'
p923
aS'generator'
p924
aS'simMuonRPCDigis'
p925
aS'hiSignal'
p926
aS'mixSimCaloHits'
p927
aS'mix'
p928
aS'VtxSmeared'
p929
aS'LHCTransport'
p930
aS'ecalRecHit'
p931
aS'hfreco'
p932
aS'mixRecoTracks'
p933
aS'hiSignalG4SimHits'
p934
aS'famosSimHits'
p935
aS'MuonSimHits'
p936
aS'g4SimHits'
p937
aS'hiSignalLHCTransport'
p938
aS'mixGenPU'
p939
aS'l1ParamMuons'
p940
aS'simBeamSpotFilter'
p941
aS'simMuonCSCDigis'
p942
aS'mixData'
p943
asg923
g0
(g826
g2
Ntp944
Rp945
(dp946
g14
I00
sg32
I01
sg15
I00
sg830
g0
(g105
g2
Ntp947
Rp948
(dp949
g14
I00
sg32
I00
sg64
I6541321
sg15
I00
sbsg11
(lp950
g830
ag835
asg835
g0
(g74
g2
Ntp951
Rp952
(dp953
g14
I00
sg32
I00
sg64
g839
sg15
I00
sbsbsg924
g0
(g826
g2
Ntp954
Rp955
(dp956
g14
I00
sg32
I01
sg15
I00
sg830
g0
(g105
g2
Ntp957
Rp958
(dp959
g14
I00
sg32
I00
sg64
I123456789
sg15
I00
sbsg11
(lp960
g830
ag835
asg835
g0
(g74
g2
Ntp961
Rp962
(dp963
g14
I00
sg32
I00
sg64
g877
sg15
I00
sbsbsg925
g0
(g826
g2
Ntp964
Rp965
(dp966
g14
I00
sg32
I01
sg15
I00
sg830
g0
(g105
g2
Ntp967
Rp968
(dp969
g14
I00
sg32
I00
sg64
I1234567
sg15
I00
sbsg11
(lp970
g830
ag835
asg835
g0
(g74
g2
Ntp971
Rp972
(dp973
g14
I00
sg32
I00
sg64
g877
sg15
I00
sbsbsg926
g0
(g826
g2
Ntp974
Rp975
(dp976
g14
I00
sg32
I01
sg15
I00
sg830
g0
(g105
g2
Ntp977
Rp978
(dp979
g14
I00
sg32
I00
sg64
I123456789
sg15
I00
sbsg11
(lp980
g830
ag835
asg835
g0
(g74
g2
Ntp981
Rp982
(dp983
g14
I00
sg32
I00
sg64
g877
sg15
I00
sbsbsg927
g0
(g826
g2
Ntp984
Rp985
(dp986
g14
I00
sg32
I01
sg15
I00
sg830
g0
(g105
g2
Ntp987
Rp988
(dp989
g14
I00
sg32
I00
sg64
I918273
sg15
I00
sbsg11
(lp990
g830
ag835
asg835
g0
(g74
g2
Ntp991
Rp992
(dp993
g14
I00
sg32
I00
sg64
g839
sg15
I00
sbsbsg928
g0
(g826
g2
Ntp994
Rp995
(dp996
g14
I00
sg32
I01
sg15
I00
sg830
g0
(g105
g2
Ntp997
Rp998
(dp999
g14
I00
sg32
I00
sg64
I12345
sg15
I00
sbsg11
(lp1000
g830
ag835
asg835
g0
(g74
g2
Ntp1001
Rp1002
(dp1003
g14
I00
sg32
I00
sg64
g877
sg15
I00
sbsbsg929
g0
(g826
g2
Ntp1004
Rp1005
(dp1006
g14
I00
sg32
I01
sg15
I00
sg830
g0
(g105
g2
Ntp1007
Rp1008
(dp1009
g14
I00
sg32
I00
sg64
I98765432
sg15
I00
sbsg11
(lp1010
g830
ag835
asg835
g0
(g74
g2
Ntp1011
Rp1012
(dp1013
g14
I00
sg32
I00
sg64
g877
sg15
I00
sbsbsg930
g0
(g826
g2
Ntp1014
Rp1015
(dp1016
g14
I00
sg32
I01
sg15
I00
sg830
g0
(g105
g2
Ntp1017
Rp1018
(dp1019
g14
I00
sg32
I00
sg64
I87654321
sg15
I00
sbsg11
(lp1020
g830
ag835
asg835
g0
(g74
g2
Ntp1021
Rp1022
(dp1023
g14
I00
sg32
I00
sg64
g839
sg15
I00
sbsbsg931
g0
(g826
g2
Ntp1024
Rp1025
(dp1026
g14
I00
sg32
I01
sg15
I00
sg830
g0
(g105
g2
Ntp1027
Rp1028
(dp1029
g14
I00
sg32
I00
sg64
I654321
sg15
I00
sbsg11
(lp1030
g830
ag835
asg835
g0
(g74
g2
Ntp1031
Rp1032
(dp1033
g14
I00
sg32
I00
sg64
g839
sg15
I00
sbsbsg943
g0
(g826
g2
Ntp1034
Rp1035
(dp1036
g14
I00
sg32
I01
sg15
I00
sg830
g0
(g105
g2
Ntp1037
Rp1038
(dp1039
g14
I00
sg32
I00
sg64
I12345
sg15
I00
sbsg11
(lp1040
g830
ag835
asg835
g0
(g74
g2
Ntp1041
Rp1042
(dp1043
g14
I00
sg32
I00
sg64
g877
sg15
I00
sbsbsg933
g0
(g826
g2
Ntp1044
Rp1045
(dp1046
g14
I00
sg32
I01
sg15
I00
sg830
g0
(g105
g2
Ntp1047
Rp1048
(dp1049
g14
I00
sg32
I00
sg64
I918273
sg15
I00
sbsg11
(lp1050
g830
ag835
asg835
g0
(g74
g2
Ntp1051
Rp1052
(dp1053
g14
I00
sg32
I00
sg64
g839
sg15
I00
sbsbsg934
g0
(g826
g2
Ntp1054
Rp1055
(dp1056
g14
I00
sg32
I01
sg15
I00
sg830
g0
(g105
g2
Ntp1057
Rp1058
(dp1059
g14
I00
sg32
I00
sg64
I11
sg15
I00
sbsg11
(lp1060
g830
ag835
asg835
g0
(g74
g2
Ntp1061
Rp1062
(dp1063
g14
I00
sg32
I00
sg64
g877
sg15
I00
sbsbsg935
g0
(g826
g2
Ntp1064
Rp1065
(dp1066
g14
I00
sg32
I01
sg15
I00
sg830
g0
(g105
g2
Ntp1067
Rp1068
(dp1069
g14
I00
sg32
I00
sg64
I13579
sg15
I00
sbsg11
(lp1070
g830
ag835
asg835
g0
(g74
g2
Ntp1071
Rp1072
(dp1073
g14
I00
sg32
I00
sg64
g839
sg15
I00
sbsbsg936
g0
(g826
g2
Ntp1074
Rp1075
(dp1076
g14
I00
sg32
I01
sg15
I00
sg830
g0
(g105
g2
Ntp1077
Rp1078
(dp1079
g14
I00
sg32
I00
sg64
I987346
sg15
I00
sbsg11
(lp1080
g830
ag835
asg835
g0
(g74
g2
Ntp1081
Rp1082
(dp1083
g14
I00
sg32
I00
sg64
g839
sg15
I00
sbsbsg937
g0
(g826
g2
Ntp1084
Rp1085
(dp1086
g14
I00
sg32
I01
sg15
I00
sg830
g0
(g105
g2
Ntp1087
Rp1088
(dp1089
g14
I00
sg32
I00
sg64
I11
sg15
I00
sbsg11
(lp1090
g830
ag835
asg835
g0
(g74
g2
Ntp1091
Rp1092
(dp1093
g14
I00
sg32
I00
sg64
g877
sg15
I00
sbsbsg938
g0
(g826
g2
Ntp1094
Rp1095
(dp1096
g14
I00
sg32
I01
sg15
I00
sg830
g0
(g105
g2
Ntp1097
Rp1098
(dp1099
g14
I00
sg32
I00
sg64
I88776655
sg15
I00
sbsg11
(lp1100
g830
ag835
asg835
g0
(g74
g2
Ntp1101
Rp1102
(dp1103
g14
I00
sg32
I00
sg64
g839
sg15
I00
sbsbsg939
g0
(g826
g2
Ntp1104
Rp1105
(dp1106
g14
I00
sg32
I01
sg15
I00
sg830
g0
(g105
g2
Ntp1107
Rp1108
(dp1109
g14
I00
sg32
I00
sg64
I918273
sg15
I00
sbsg11
(lp1110
g830
ag835
asg835
g0
(g74
g2
Ntp1111
Rp1112
(dp1113
g14
I00
sg32
I00
sg64
g839
sg15
I00
sbsbsg940
g0
(g826
g2
Ntp1114
Rp1115
(dp1116
g14
I00
sg32
I01
sg15
I00
sg830
g0
(g105
g2
Ntp1117
Rp1118
(dp1119
g14
I00
sg32
I00
sg64
I6453209
sg15
I00
sbsg11
(lp1120
g830
ag835
asg835
g0
(g74
g2
Ntp1121
Rp1122
(dp1123
g14
I00
sg32
I00
sg64
g839
sg15
I00
sbsbsg15
I00
sg941
g0
(g826
g2
Ntp1124
Rp1125
(dp1126
g14
I00
sg32
I01
sg15
I00
sg830
g0
(g105
g2
Ntp1127
Rp1128
(dp1129
g14
I00
sg32
I00
sg64
I87654321
sg15
I00
sbsg11
(lp1130
g830
ag835
asg835
g0
(g74
g2
Ntp1131
Rp1132
(dp1133
g14
I00
sg32
I00
sg64
g877
sg15
I00
sbsbsg942
g0
(g826
g2
Ntp1134
Rp1135
(dp1136
g14
I00
sg32
I01
sg15
I00
sg830
g0
(g105
g2
Ntp1137
Rp1138
(dp1139
g14
I00
sg32
I00
sg64
I11223344
sg15
I00
sbsg11
(lp1140
g830
ag835
asg835
g0
(g74
g2
Ntp1141
Rp1142
(dp1143
g14
I00
sg32
I00
sg64
g877
sg15
I00
sbsbsg932
g0
(g826
g2
Ntp1144
Rp1145
(dp1146
g14
I00
sg32
I01
sg15
I00
sg830
g0
(g105
g2
Ntp1147
Rp1148
(dp1149
g14
I00
sg32
I00
sg64
I541321
sg15
I00
sbsg11
(lp1150
g830
ag835
asg835
g0
(g74
g2
Ntp1151
Rp1152
(dp1153
g14
I00
sg32
I00
sg64
g839
sg15
I00
sbsbsg17
g18
sbsS'CaloTowerGeometryFromDBEP'
p1154
g0
(g7
g2
Ntp1155
Rp1156
(dp1157
g11
(lp1158
S'applyAlignment'
p1159
aS'hcalTopologyConstants'
p1160
asg14
I00
sg15
I01
sg16
I40
sg17
g18
sg1160
g0
(g826
g2
Ntp1161
Rp1162
(dp1163
g14
I00
sg32
I01
sg15
I00
sS'maxDepthHE'
p1164
g0
(g66
g2
Ntp1165
Rp1166
(dp1167
g14
I00
sg32
I01
sg64
I3
sg15
I00
sbsS'maxDepthHB'
p1168
g0
(g66
g2
Ntp1169
Rp1170
(dp1171
g14
I00
sg32
I01
sg64
I2
sg15
I00
sbsg11
(lp1172
g1164
ag1168
aS'mode'
p1173
asg1173
g0
(g74
g2
Ntp1174
Rp1175
(dp1176
g14
I00
sg32
I01
sg64
S'HcalTopologyMode::LHC'
p1177
sg15
I00
sbsbsg34
g1154
sg1159
g0
(g60
g2
Ntp1178
Rp1179
(dp1180
g14
I00
sg32
I01
sg64
I00
sg15
I00
sbsg35
g1154
sbsg410
g386
sg233
g224
sS'_Process__InExtendCall'
p1181
I00
sS'ppNoffFilter360'
p1182
g0
(g171
g2
Ntp1183
Rp1184
(dp1185
g11
(lp1186
g650
ag651
asg14
I00
sg15
I00
sg16
I146
sg17
g550
sg650
g0
(g154
g2
Ntp1187
Rp1188
(dp1189
g14
I00
sg32
I01
sg15
I00
sg158
g258
sg160
g78
sg161
g78
sbsg34
g1182
sg651
g0
(g656
g20
(lp1190
I330
aI331
aI332
aI333
aI334
aI335
aI336
aI337
aI338
aI339
aI340
aI341
aI342
aI343
aI344
aI345
aI346
aI347
aI348
aI349
aI350
aI351
aI352
aI353
aI354
aI355
aI356
aI357
aI358
aI359
atp1191
Rp1192
(dp1193
g14
I00
sg32
I01
sg15
I00
sbsg35
g661
sbsS'_Process__producers'
p1194
(dp1195
g258
g452
sg281
g467
sS'randomEngineStateProducer'
p1196
g0
(g50
g2
Ntp1197
Rp1198
(dp1199
g11
(lp1200
sg14
I00
sg15
I00
sg16
I170
sg17
S'/cvmfs/cms.cern.ch/slc6_amd64_gcc530/cms/cmssw/CMSSW_8_0_28/python/IOMC/RandomEngine/IOMC_cff.py'
p1201
sg34
g1196
sg35
S'RandomEngineStateProducer'
p1202
sbsg169
g144
sg73
g52
ssg263
g243
sg221
g211
sS'MuonDetLayerGeometryESProducer'
p1203
g0
(g7
g2
Ntp1204
Rp1205
(dp1206
g11
(lp1207
sg14
I00
sg15
I00
sg16
I40
sg17
g18
sg34
g1203
sg35
g1203
sbsS'EcalEndcapGeometryFromDBEP'
p1208
g0
(g7
g2
Ntp1209
Rp1210
(dp1211
g11
(lp1212
g1159
asg14
I00
sg15
I01
sg16
I40
sg17
g18
sg34
g1208
sg1159
g0
(g60
g2
Ntp1213
Rp1214
(dp1215
g14
I00
sg32
I01
sg64
I01
sg15
I01
sbsg35
g1208
sbsg127
g84
sS'MessageLogger'
p1216
g0
(g778
g2
Ntp1217
Rp1218
(dp1219
g14
I00
sS'suppressInfo'
p1220
g0
(g19
g20
(lp1221
tp1222
Rp1223
(dp1224
g14
I00
sg32
I00
sg15
I00
sg33
I1
sbsS'suppressDebug'
p1225
g0
(g19
g20
(lp1226
tp1227
Rp1228
(dp1229
g14
I00
sg32
I00
sg15
I00
sg33
I1
sbsS'cout'
p1230
g0
(g826
g2
Ntp1231
Rp1232
(dp1233
g14
I00
sg32
I00
sS'placeholder'
p1234
g0
(g60
g2
Ntp1235
Rp1236
(dp1237
g14
I00
sg32
I00
sg64
I01
sg15
I00
sbsg15
I00
sg11
(lp1238
g1234
asbsg16
I10
sS'debugModules'
p1239
g0
(g19
g20
(lp1240
tp1241
Rp1242
(dp1243
g14
I00
sg32
I00
sg15
I00
sg33
I1
sbsg35
g1216
sS'fwkJobReports'
p1244
g0
(g19
g20
(lp1245
S'FrameworkJobReport'
p1246
atp1247
Rp1248
(dp1249
g14
I00
sg32
I00
sg15
I00
sg33
I1
sbsg11
(lp1250
g1220
aS'debugs'
p1251
ag1225
ag1230
aS'cerr_stats'
p1252
aS'warnings'
p1253
aS'default'
p1254
aS'statistics'
p1255
aS'cerr'
p1256
ag1246
aS'suppressWarning'
p1257
aS'errors'
p1258
aS'destinations'
p1259
ag1239
aS'infos'
p1260
aS'categories'
p1261
ag1244
asg1255
g0
(g19
g20
(lp1262
g1252
atp1263
Rp1264
(dp1265
g14
I00
sg32
I00
sg15
I00
sg33
I1
sbsg17
g18
sg1259
g0
(g19
g20
(lp1266
g1253
ag1258
ag1260
ag1251
ag1230
ag1256
atp1267
Rp1268
(dp1269
g14
I00
sg32
I00
sg15
I00
sg33
I1
sbsg1251
g0
(g826
g2
Ntp1270
Rp1271
(dp1272
g14
I00
sg32
I00
sg1234
g0
(g60
g2
Ntp1273
Rp1274
(dp1275
g14
I00
sg32
I00
sg64
I01
sg15
I00
sbsg15
I00
sg11
(lp1276
g1234
asbsg1253
g0
(g826
g2
Ntp1277
Rp1278
(dp1279
g14
I00
sg32
I00
sg1234
g0
(g60
g2
Ntp1280
Rp1281
(dp1282
g14
I00
sg32
I00
sg64
I01
sg15
I00
sbsg15
I00
sg11
(lp1283
g1234
asbsg1258
g0
(g826
g2
Ntp1284
Rp1285
(dp1286
g14
I00
sg32
I00
sg1234
g0
(g60
g2
Ntp1287
Rp1288
(dp1289
g14
I00
sg32
I00
sg64
I01
sg15
I00
sbsg15
I00
sg11
(lp1290
g1234
asbsg1246
g0
(g826
g2
Ntp1291
Rp1292
(dp1293
g14
I00
sg32
I00
sg15
I00
sg1254
g0
(g826
g2
Ntp1294
Rp1295
(dp1296
g14
I00
sg32
I00
sS'limit'
p1297
g0
(g66
g2
Ntp1298
Rp1299
(dp1300
g14
I00
sg32
I00
sg64
I0
sg15
I00
sbsg15
I00
sg11
(lp1301
g1297
asbsS'FwkJob'
p1302
g0
(g826
g2
Ntp1303
Rp1304
(dp1305
g14
I00
sg32
I00
sg15
I00
sg1297
g0
(g66
g2
Ntp1306
Rp1307
(dp1308
g14
I00
sg32
I00
sg64
I10000000
sg15
I00
sbsg11
(lp1309
S'optionalPSet'
p1310
ag1297
asg1310
g0
(g60
g2
Ntp1311
Rp1312
(dp1313
g14
I00
sg32
I00
sg64
I01
sg15
I00
sbsbsg11
(lp1314
g1254
ag1310
ag1302
asg1310
g0
(g60
g2
Ntp1315
Rp1316
(dp1317
g14
I00
sg32
I00
sg64
I01
sg15
I00
sbsbsg1257
g0
(g19
g20
(lp1318
tp1319
Rp1320
(dp1321
g14
I00
sg32
I00
sg15
I00
sg33
I1
sbsg1260
g0
(g826
g2
Ntp1322
Rp1323
(dp1324
g14
I00
sg32
I00
sg15
I00
sS'Root_NoDictionary'
p1325
g0
(g826
g2
Ntp1326
Rp1327
(dp1328
g14
I00
sg32
I00
sg15
I00
sg1297
g0
(g66
g2
Ntp1329
Rp1330
(dp1331
g14
I00
sg32
I00
sg64
I0
sg15
I00
sbsg11
(lp1332
g1310
ag1297
asg1310
g0
(g60
g2
Ntp1333
Rp1334
(dp1335
g14
I00
sg32
I00
sg64
I01
sg15
I00
sbsbsg11
(lp1336
g1310
ag1325
ag1234
asg1310
g0
(g60
g2
Ntp1337
Rp1338
(dp1339
g14
I00
sg32
I00
sg64
I01
sg15
I00
sbsg1234
g0
(g60
g2
Ntp1340
Rp1341
(dp1342
g14
I00
sg32
I00
sg64
I01
sg15
I00
sbsbsg1261
g0
(g19
g20
(lp1343
g1302
aS'FwkReport'
p1344
aS'FwkSummary'
p1345
ag1325
atp1346
Rp1347
(dp1348
g14
I00
sg32
I00
sg15
I00
sg33
I1
sbsg15
I00
sg1252
g0
(g826
g2
Ntp1349
Rp1350
(dp1351
g14
I00
sg32
I00
sg15
I00
sg1310
g0
(g60
g2
Ntp1352
Rp1353
(dp1354
g14
I00
sg32
I00
sg64
I01
sg15
I00
sbsg11
(lp1355
S'threshold'
p1356
aS'output'
p1357
ag1310
asg1356
g0
(g74
g2
Ntp1358
Rp1359
(dp1360
g14
I00
sg32
I00
sg64
S'WARNING'
p1361
sg15
I00
sbsg1357
g0
(g74
g2
Ntp1362
Rp1363
(dp1364
g14
I00
sg32
I00
sg64
g1256
sg15
I00
sbsbsg1254
g0
(g826
g2
Ntp1365
Rp1366
(dp1367
g14
I00
sg32
I00
sg15
I00
sg11
(lp1368
sbsg1256
g0
(g826
g2
Ntp1369
Rp1370
(dp1371
g14
I00
sg32
I00
sS'noTimeStamps'
p1372
g0
(g60
g2
Ntp1373
Rp1374
(dp1375
g14
I00
sg32
I00
sg64
I00
sg15
I00
sbsg1344
g0
(g826
g2
Ntp1376
Rp1377
(dp1378
g14
I00
sg32
I00
sg15
I01
sS'reportEvery'
p1379
g0
(g66
g2
Ntp1380
Rp1381
(dp1382
g14
I00
sg32
I00
sg64
I100
sg15
I01
sbsg1297
g0
(g66
g2
Ntp1383
Rp1384
(dp1385
g14
I00
sg32
I00
sg64
I10000000
sg15
I00
sbsg11
(lp1386
g1379
ag1310
ag1297
asg1310
g0
(g60
g2
Ntp1387
Rp1388
(dp1389
g14
I00
sg32
I00
sg64
I01
sg15
I00
sbsbsg15
I00
sg1254
g0
(g826
g2
Ntp1390
Rp1391
(dp1392
g14
I00
sg32
I00
sg1297
g0
(g66
g2
Ntp1393
Rp1394
(dp1395
g14
I00
sg32
I00
sg64
I10000000
sg15
I00
sbsg15
I00
sg11
(lp1396
g1297
asbsg1325
g0
(g826
g2
Ntp1397
Rp1398
(dp1399
g14
I00
sg32
I00
sg15
I00
sg1297
g0
(g66
g2
Ntp1400
Rp1401
(dp1402
g14
I00
sg32
I00
sg64
I0
sg15
I00
sbsg11
(lp1403
g1310
ag1297
asg1310
g0
(g60
g2
Ntp1404
Rp1405
(dp1406
g14
I00
sg32
I00
sg64
I01
sg15
I00
sbsbsS'INFO'
p1407
g0
(g826
g2
Ntp1408
Rp1409
(dp1410
g14
I00
sg32
I00
sg1297
g0
(g66
g2
Ntp1411
Rp1412
(dp1413
g14
I00
sg32
I00
sg64
I0
sg15
I00
sbsg15
I00
sg11
(lp1414
g1297
asbsg1310
g0
(g60
g2
Ntp1415
Rp1416
(dp1417
g14
I00
sg32
I00
sg64
I01
sg15
I00
sbsg1302
g0
(g826
g2
Ntp1418
Rp1419
(dp1420
g14
I00
sg32
I00
sg15
I00
sg1297
g0
(g66
g2
Ntp1421
Rp1422
(dp1423
g14
I00
sg32
I00
sg64
I0
sg15
I00
sbsg11
(lp1424
g1310
ag1297
asg1310
g0
(g60
g2
Ntp1425
Rp1426
(dp1427
g14
I00
sg32
I00
sg64
I01
sg15
I00
sbsbsg1345
g0
(g826
g2
Ntp1428
Rp1429
(dp1430
g14
I00
sg32
I00
sg15
I00
sg1379
g0
(g66
g2
Ntp1431
Rp1432
(dp1433
g14
I00
sg32
I00
sg64
I1
sg15
I00
sbsg1297
g0
(g66
g2
Ntp1434
Rp1435
(dp1436
g14
I00
sg32
I00
sg64
I10000000
sg15
I00
sbsg11
(lp1437
g1379
ag1310
ag1297
asg1310
g0
(g60
g2
Ntp1438
Rp1439
(dp1440
g14
I00
sg32
I00
sg64
I01
sg15
I00
sbsbsg11
(lp1441
g1407
ag1372
ag1344
ag1254
ag1325
ag1356
ag1302
ag1345
ag1310
asg1356
g0
(g74
g2
Ntp1442
Rp1443
(dp1444
g14
I00
sg32
I00
sg64
g1407
sg15
I00
sbsbsbsS'centralityFilter'
p1445
g0
(g171
g2
Ntp1446
Rp1447
(dp1448
g11
(lp1449
g650
ag651
asg14
I00
sg15
I00
sg16
I5
sg17
S'/cvmfs/cms.cern.ch/slc6_amd64_gcc530/cms/cmssw/CMSSW_8_0_28/python/RecoHI/HiCentralityAlgos/CentralityFilter_cfi.py'
p1450
sg650
g0
(g154
g2
Ntp1451
Rp1452
(dp1453
g14
I00
sg32
I01
sg15
I00
sg158
S'centralityBin'
p1454
sg160
g78
sg161
S'HFtowers'
p1455
sbsg34
g1445
sg651
g0
(g656
g20
(lp1456
I0
atp1457
Rp1458
(dp1459
g14
I00
sg32
I01
sg15
I00
sbsg35
g661
sbsg323
g301
sg169
g144
sg554
g538
sS'_Process__services'
p1460
(dp1461
g1216
g1218
sS'DQMStore'
p1462
g0
(g778
g2
Ntp1463
Rp1464
(dp1465
g11
(lp1466
sg14
I00
sg15
I00
sg16
I10
sg17
g18
sg35
g1462
sbsg821
g823
sg777
g780
ssg1462
g1464
sS'path120'
p1467
g0
(g609
g2
Ntp1468
Rp1469
(dp1470
g14
I00
sg43
g0
(g44
g2
Ntp1471
Rp1472
(dp1473
g48
(lp1474
g801
ag531
ag452
ag0
(g171
g2
Ntp1475
Rp1476
(dp1477
g11
(lp1478
g650
ag651
asg14
I00
sg15
I00
sg16
I118
sg17
g550
sg650
g0
(g154
g2
Ntp1479
Rp1480
(dp1481
g14
I00
sg32
I01
sg15
I00
sg158
g258
sg160
g78
sg161
g78
sbsg34
S'ppNoffFilter120'
p1482
sg651
g0
(g656
g20
(lp1483
I120
aI121
aI122
aI123
aI124
aI125
aI126
aI127
aI128
aI129
aI130
aI131
aI132
aI133
aI134
aI135
aI136
aI137
aI138
aI139
aI140
aI141
aI142
aI143
aI144
aI145
aI146
aI147
aI148
aI149
atp1484
Rp1485
(dp1486
g14
I00
sg32
I01
sg15
I00
sbsg35
g661
sbag467
ag515
ag0
(g82
g2
Ntp1487
Rp1488
(dp1489
g11
(lp1490
g270
ag269
ag666
ag667
ag668
ag273
asg14
I00
sg15
I00
sg16
I158
sg17
g550
sg270
g0
(g97
g2
Ntp1491
Rp1492
(dp1493
g14
I00
sg32
I00
sg64
I0
sg15
I00
sbsg269
g0
(g97
g2
Ntp1494
Rp1495
(dp1496
g14
I00
sg32
I00
sg64
I5000
sg15
I00
sbsg666
g0
(g154
g2
Ntp1497
Rp1498
(dp1499
g14
I00
sg32
I00
sg15
I00
sg158
g281
sg160
g78
sg161
g678
sbsg667
g0
(g154
g2
Ntp1500
Rp1501
(dp1502
g14
I00
sg32
I00
sg15
I00
sg158
g281
sg160
g78
sg161
g337
sbsg668
g0
(g154
g2
Ntp1503
Rp1504
(dp1505
g14
I00
sg32
I00
sg15
I00
sg158
g281
sg160
g78
sg161
g282
sbsg34
S'corr2D120'
p1506
sg273
g0
(g66
g2
Ntp1507
Rp1508
(dp1509
g14
I00
sg32
I00
sg64
I5000
sg15
I00
sbsg35
g689
sbasbsg15
I00
sg34
g1467
sbsS'CastorGeometryFromDBEP'
p1510
g0
(g7
g2
Ntp1511
Rp1512
(dp1513
g11
(lp1514
g1159
asg14
I00
sg15
I00
sg16
I40
sg17
g18
sg34
g1510
sg1159
g0
(g60
g2
Ntp1515
Rp1516
(dp1517
g14
I00
sg32
I01
sg64
I00
sg15
I00
sbsg35
g1510
sbsg521
g523
sS'eegeom'
p1518
g0
(cFWCore.ParameterSet.Modules
ESSource
p1519
g2
Ntp1520
Rp1521
(dp1522
g11
(lp1523
S'iovIsRunNotTime'
p1524
aS'recordName'
p1525
aS'firstValid'
p1526
asg14
I00
sg15
I00
sg16
I6
sg1525
g0
(g74
g2
Ntp1527
Rp1528
(dp1529
g14
I00
sg32
I01
sg64
S'EcalMappingRcd'
p1530
sg15
I00
sbsg17
S'/cvmfs/cms.cern.ch/slc6_amd64_gcc530/cms/cmssw/CMSSW_8_0_28/python/Geometry/EcalMapping/EcalMappingRecord_cfi.py'
p1531
sg1526
g0
(cFWCore.ParameterSet.Types
vuint32
p1532
g20
(lp1533
I1
atp1534
Rp1535
(dp1536
g14
I00
sg32
I01
sg15
I00
sbsg34
g1518
sg1524
g0
(g60
g2
Ntp1537
Rp1538
(dp1539
g14
I00
sg32
I01
sg64
I01
sg15
I00
sbsg35
S'EmptyESSource'
p1540
sbsS'_Process__vpsets'
p1541
(dp1542
sS'EcalTrigTowerConstituentsMapBuilder'
p1543
g0
(g7
g2
Ntp1544
Rp1545
(dp1546
g11
(lp1547
S'MapFile'
p1548
asg14
I00
sg15
I00
sg1548
g0
(g74
g2
Ntp1549
Rp1550
(dp1551
g14
I00
sg32
I00
sg64
S'Geometry/EcalMapping/data/EndCap_TTMap.txt'
p1552
sg15
I00
sbsg17
g18
sg16
I40
sg34
g1543
sg35
g1543
sbsg685
g663
sg655
g647
sS'schedule'
p1553
g0
(cFWCore.ParameterSet.SequenceTypes
Schedule
p1554
g20
(lp1555
g1469
ag0
(g609
g2
Ntp1556
Rp1557
(dp1558
g14
I00
sg43
g0
(g44
g2
Ntp1559
Rp1560
(dp1561
g48
(lp1562
g0
(g171
g2
Ntp1563
Rp1564
(dp1565
g11
(lp1566
g621
ag622
ag623
ag624
ag625
asg14
I00
sg623
g0
(g19
g20
(lp1567
g805
aS'HLT_PAFullTracks_Multiplicity150_v*'
p1568
atp1569
Rp1570
(dp1571
g14
I00
sg32
I01
sg15
I01
sg33
I1
sbsg15
I01
sg16
I45
sg17
g550
sg34
S'hltHM150'
p1572
sg621
g0
(g74
g2
Ntp1573
Rp1574
(dp1575
g14
I00
sg32
I01
sg64
g78
sg15
I00
sbsg625
g0
(g154
g2
Ntp1576
Rp1577
(dp1578
g14
I00
sg32
I01
sg15
I00
sg158
g638
sg161
g78
sg160
g104
sbsg624
g0
(g60
g2
Ntp1579
Rp1580
(dp1581
g14
I00
sg32
I01
sg64
I00
sg15
I00
sbsg35
g642
sg622
g0
(g60
g2
Ntp1582
Rp1583
(dp1584
g14
I00
sg32
I01
sg64
I01
sg15
I00
sbsbag531
ag452
ag705
ag467
ag515
ag756
asbsg15
I00
sg34
S'path150'
p1585
sbag611
ag0
(g609
g2
Ntp1586
Rp1587
(dp1588
g14
I00
sg43
g0
(g44
g2
Ntp1589
Rp1590
(dp1591
g48
(lp1592
g0
(g171
g2
Ntp1593
Rp1594
(dp1595
g11
(lp1596
g621
ag622
ag623
ag624
ag625
asg14
I00
sg623
g0
(g19
g20
(lp1597
S'HLT_PAFullTracks_Multiplicity250*_v*'
p1598
atp1599
Rp1600
(dp1601
g14
I00
sg32
I01
sg15
I01
sg33
I1
sbsg15
I01
sg16
I69
sg17
g550
sg34
S'hltHM250'
p1602
sg621
g0
(g74
g2
Ntp1603
Rp1604
(dp1605
g14
I00
sg32
I01
sg64
g78
sg15
I00
sbsg625
g0
(g154
g2
Ntp1606
Rp1607
(dp1608
g14
I00
sg32
I01
sg15
I00
sg158
g638
sg161
g78
sg160
g104
sbsg624
g0
(g60
g2
Ntp1609
Rp1610
(dp1611
g14
I00
sg32
I01
sg64
I00
sg15
I00
sbsg35
g642
sg622
g0
(g60
g2
Ntp1612
Rp1613
(dp1614
g14
I00
sg32
I01
sg64
I01
sg15
I00
sbsbag531
ag452
ag0
(g171
g2
Ntp1615
Rp1616
(dp1617
g11
(lp1618
g650
ag651
asg14
I00
sg15
I00
sg16
I139
sg17
g550
sg650
g0
(g154
g2
Ntp1619
Rp1620
(dp1621
g14
I00
sg32
I01
sg15
I00
sg158
g258
sg160
g78
sg161
g78
sbsg34
S'ppNoffFilter250'
p1622
sg651
g0
(g656
g20
(lp1623
I250
aI251
aI252
aI253
aI254
aI255
aI256
aI257
aI258
aI259
aI260
aI261
aI262
aI263
aI264
aI265
aI266
aI267
aI268
aI269
aI270
aI271
aI272
aI273
aI274
aI275
aI276
aI277
aI278
aI279
aI280
aI281
aI282
aI283
aI284
aI285
aI286
aI287
aI288
aI289
aI290
aI291
aI292
aI293
aI294
aI295
aI296
aI297
aI298
aI299
aI300
aI301
aI302
aI303
aI304
aI305
aI306
aI307
aI308
aI309
aI310
aI311
aI312
aI313
aI314
aI315
aI316
aI317
aI318
aI319
aI320
aI321
aI322
aI323
aI324
aI325
aI326
aI327
aI328
aI329
aI330
aI331
aI332
aI333
aI334
aI335
aI336
aI337
aI338
aI339
aI340
aI341
aI342
aI343
aI344
aI345
aI346
aI347
aI348
aI349
aI350
aI351
aI352
aI353
aI354
aI355
aI356
aI357
aI358
aI359
aI360
aI361
aI362
aI363
aI364
aI365
aI366
aI367
aI368
aI369
aI370
aI371
aI372
aI373
aI374
aI375
aI376
aI377
aI378
aI379
aI380
aI381
aI382
aI383
aI384
aI385
aI386
aI387
aI388
aI389
aI390
aI391
aI392
aI393
aI394
aI395
aI396
aI397
aI398
aI399
aI400
aI401
aI402
aI403
aI404
aI405
aI406
aI407
aI408
aI409
aI410
aI411
aI412
aI413
aI414
aI415
aI416
aI417
aI418
aI419
aI420
aI421
aI422
aI423
aI424
aI425
aI426
aI427
aI428
aI429
aI430
aI431
aI432
aI433
aI434
aI435
aI436
aI437
aI438
aI439
aI440
aI441
aI442
aI443
aI444
aI445
aI446
aI447
aI448
aI449
aI450
aI451
aI452
aI453
aI454
aI455
aI456
aI457
aI458
aI459
aI460
aI461
aI462
aI463
aI464
aI465
aI466
aI467
aI468
aI469
aI470
aI471
aI472
aI473
aI474
aI475
aI476
aI477
aI478
aI479
aI480
aI481
aI482
aI483
aI484
aI485
aI486
aI487
aI488
aI489
aI490
aI491
aI492
aI493
aI494
aI495
aI496
aI497
aI498
aI499
aI500
aI501
aI502
aI503
aI504
aI505
aI506
aI507
aI508
aI509
aI510
aI511
aI512
aI513
aI514
aI515
aI516
aI517
aI518
aI519
aI520
aI521
aI522
aI523
aI524
aI525
aI526
aI527
aI528
aI529
aI530
aI531
aI532
aI533
aI534
aI535
aI536
aI537
aI538
aI539
aI540
aI541
aI542
aI543
aI544
aI545
aI546
aI547
aI548
aI549
aI550
aI551
aI552
aI553
aI554
aI555
aI556
aI557
aI558
aI559
aI560
aI561
aI562
aI563
aI564
aI565
aI566
aI567
aI568
aI569
aI570
aI571
aI572
aI573
aI574
aI575
aI576
aI577
aI578
aI579
aI580
aI581
aI582
aI583
aI584
aI585
aI586
aI587
aI588
aI589
aI590
aI591
aI592
aI593
aI594
aI595
aI596
aI597
aI598
aI599
atp1624
Rp1625
(dp1626
g14
I00
sg32
I01
sg15
I00
sbsg35
g661
sbag467
ag515
ag717
asbsg15
I00
sg34
S'path250'
p1627
sbag0
(g609
g2
Ntp1628
Rp1629
(dp1630
g14
I00
sg43
g0
(g44
g2
Ntp1631
Rp1632
(dp1633
g48
(lp1634
g1594
ag531
ag452
ag1184
ag467
ag515
ag0
(g82
g2
Ntp1635
Rp1636
(dp1637
g11
(lp1638
g270
ag269
ag666
ag667
ag668
ag273
asg14
I00
sg15
I00
sg16
I164
sg17
g550
sg270
g0
(g97
g2
Ntp1639
Rp1640
(dp1641
g14
I00
sg32
I00
sg64
I0
sg15
I00
sbsg269
g0
(g97
g2
Ntp1642
Rp1643
(dp1644
g14
I00
sg32
I00
sg64
I5000
sg15
I00
sbsg666
g0
(g154
g2
Ntp1645
Rp1646
(dp1647
g14
I00
sg32
I00
sg15
I00
sg158
g281
sg161
g678
sg160
g78
sbsg667
g0
(g154
g2
Ntp1648
Rp1649
(dp1650
g14
I00
sg32
I00
sg15
I00
sg158
g281
sg161
g337
sg160
g78
sbsg668
g0
(g154
g2
Ntp1651
Rp1652
(dp1653
g14
I00
sg32
I00
sg15
I00
sg158
g281
sg161
g282
sg160
g78
sbsg34
S'corr2D360'
p1654
sg273
g0
(g66
g2
Ntp1655
Rp1656
(dp1657
g14
I00
sg32
I00
sg64
I5000
sg15
I00
sbsg35
g689
sbasbsg15
I00
sg34
S'path360'
p1658
sbatp1659
Rp1660
(dp1661
g14
I00
sg32
I01
sg15
I00
sbsS'_Process__esprefers'
p1662
(dp1663
sS'_Process__isStrict'
p1664
I00
sg1658
g1629
sS'HepPDTESSource'
p1665
g0
(g1519
g2
Ntp1666
Rp1667
(dp1668
g11
(lp1669
S'pdtFileName'
p1670
asg14
I00
sg1670
g0
(cFWCore.ParameterSet.Types
FileInPath
p1671
g2
Ntp1672
Rp1673
(dp1674
g14
I00
sg32
I01
sg64
S'SimGeneral/HepPDTESSource/data/pythiaparticle.tbl'
p1675
sg15
I00
sbsg15
I00
sg16
I4
sg17
S'/cvmfs/cms.cern.ch/slc6_amd64_gcc530/cms/cmssw/CMSSW_8_0_28/python/SimGeneral/HepPDTESSource/pythiapdt_cfi.py'
p1676
sg34
g1665
sg35
g1665
sbsS'_Process__outputmodules'
p1677
(dp1678
sS'_Process__analyzers'
p1679
(dp1680
g1506
g1488
sg323
g301
sg350
g328
sg381
g355
sg263
g243
sg754
g756
sg295
g266
sg685
g663
sg410
g386
sg715
g717
sg439
g415
sg127
g84
sg1654
g1636
ssg529
g531
sS'hltHM280'
p1681
g0
(g171
g2
Ntp1682
Rp1683
(dp1684
g11
(lp1685
g621
ag622
ag623
ag624
ag625
asg14
I00
sg623
g0
(g19
g20
(lp1686
g1598
atp1687
Rp1688
(dp1689
g14
I00
sg32
I01
sg15
I01
sg33
I1
sbsg15
I01
sg16
I82
sg17
g550
sg34
g1681
sg621
g0
(g74
g2
Ntp1690
Rp1691
(dp1692
g14
I00
sg32
I01
sg64
g78
sg15
I00
sbsg625
g0
(g154
g2
Ntp1693
Rp1694
(dp1695
g14
I00
sg32
I01
sg15
I00
sg158
g638
sg161
g78
sg160
g104
sbsg624
g0
(g60
g2
Ntp1696
Rp1697
(dp1698
g14
I00
sg32
I01
sg64
I00
sg15
I00
sbsg35
g642
sg622
g0
(g60
g2
Ntp1699
Rp1700
(dp1701
g14
I00
sg32
I01
sg64
I01
sg15
I00
sbsbsS'idealForDigiTrackerGeometry'
p1702
g0
(g7
g2
Ntp1703
Rp1704
(dp1705
g11
(lp1706
g793
aS'fromDDD'
p1707
ag1159
aS'alignmentsLabel'
p1708
asg14
I00
sg793
g0
(g74
g2
Ntp1709
Rp1710
(dp1711
g14
I00
sg32
I01
sg64
S'idealForDigi'
p1712
sg15
I01
sbsg15
I01
sg1708
g0
(g74
g2
Ntp1713
Rp1714
(dp1715
g14
I00
sg32
I01
sg64
S'fakeForIdeal'
p1716
sg15
I01
sbsg17
S'/cvmfs/cms.cern.ch/slc6_amd64_gcc530/cms/cmssw/CMSSW_8_0_28/python/Geometry/TrackerGeometryBuilder/idealForDigiTrackerGeometryDB_cff.py'
p1717
sg16
I8
sg34
g1702
sg1707
g0
(g60
g2
Ntp1718
Rp1719
(dp1720
g14
I00
sg32
I01
sg64
I00
sg15
I00
sbsg1159
g0
(g60
g2
Ntp1721
Rp1722
(dp1723
g14
I00
sg32
I01
sg64
I00
sg15
I01
sbsg35
S'TrackerDigiGeometryESModule'
p1724
sbsg1506
g1488
sg1622
g1616
sS'_Process__looper'
p1725
NsS'_Process__paths'
p1726
g0
(cFWCore.ParameterSet.DictTypes
SortedKeysDict
p1727
c__builtin__
dict
p1728
(dp1729
g1658
g1629
sg1585
g1557
sg1467
g1469
sg608
g611
sg1627
g1587
stp1730
Rp1731
(dp1732
S'list'
p1733
(lp1734
g1467
ag1585
ag608
ag1627
ag1658
asbsS'MuonNumberingInitialization'
p1735
g0
(g7
g2
Ntp1736
Rp1737
(dp1738
g11
(lp1739
sg14
I00
sg15
I00
sg16
I40
sg17
g18
sg34
g1735
sg35
g1735
sbsg578
g580
sS'options'
p1740
g0
(g826
g2
Ntp1741
Rp1742
(dp1743
g14
I00
sg32
I00
sg15
I00
sS'Rethrow'
p1744
g0
(g19
g20
(lp1745
S'ProductNotFound'
p1746
atp1747
Rp1748
(dp1749
g14
I00
sg32
I00
sg15
I00
sg33
I1
sbsg11
(lp1750
g1744
asg34
g1740
sbsg188
g173
sS'DTGeometryESModule'
p1751
g0
(g7
g2
Ntp1752
Rp1753
(dp1754
g11
(lp1755
g793
ag1707
ag1159
ag1708
asg14
I00
sg793
g0
(g74
g2
Ntp1756
Rp1757
(dp1758
g14
I00
sg32
I01
sg64
g78
sg15
I00
sbsg15
I00
sg1708
g0
(g74
g2
Ntp1759
Rp1760
(dp1761
g14
I00
sg32
I01
sg64
g78
sg15
I00
sbsg17
g18
sg16
I40
sg34
g1751
sg1707
g0
(g60
g2
Ntp1762
Rp1763
(dp1764
g14
I00
sg32
I01
sg64
I00
sg15
I00
sbsg1159
g0
(g60
g2
Ntp1765
Rp1766
(dp1767
g14
I00
sg32
I01
sg64
I01
sg15
I00
sbsg35
g1751
sbsS'VolumeBasedMagneticFieldESProducer'
p1768
g0
(g7
g2
Ntp1769
Rp1770
(dp1771
g11
(lp1772
S'valueOverride'
p1773
aS'debugBuilder'
p1774
ag744
asg14
I00
sg1773
g0
(g66
g2
Ntp1775
Rp1776
(dp1777
g14
I00
sg32
I01
sg64
I18268
sg15
I01
sbsg16
I40
sg17
g18
sg744
g0
(g74
g2
Ntp1778
Rp1779
(dp1780
g14
I00
sg32
I00
sg64
g78
sg15
I00
sbsg1774
g0
(g60
g2
Ntp1781
Rp1782
(dp1783
g14
I00
sg32
I00
sg64
I00
sg15
I00
sbsg34
g1768
sg35
S'VolumeBasedMagneticFieldESProducerFromDB'
p1784
sg15
I01
sbsg206
g194
sS'CaloTopologyBuilder'
p1785
g0
(g7
g2
Ntp1786
Rp1787
(dp1788
g11
(lp1789
sg14
I00
sg15
I00
sg16
I40
sg17
g18
sg34
g1785
sg35
g1785
sbsg258
g452
sg1585
g1557
sg1654
g1636
sS'_Process__psets'
p1790
(dp1791
S'maxEvents'
p1792
g0
(g826
g2
Ntp1793
Rp1794
(dp1795
g14
I00
sg32
I00
sg15
I00
sg11
(lp1796
S'input'
p1797
asg34
g1792
sg1797
g0
(g66
g2
Ntp1798
Rp1799
(dp1800
g14
I00
sg32
I00
sg64
I-1
sg15
I00
sbsbsg1740
g1742
ssg234
g236
sS'_Process__essources'
p1801
(dp1802
g1665
g1667
sg1518
g1521
ssg702
g693
sg1196
g1198
sg513
g515
sg1792
g1794
sS'CSCGeometryESModule'
p1803
g0
(g7
g2
Ntp1804
Rp1805
(dp1806
g11
(lp1807
g793
aS'useDDD'
p1808
aS'debugV'
p1809
aS'useGangedStripsInME1a'
p1810
ag1708
aS'useOnlyWiresInME1a'
p1811
aS'useRealWireGeometry'
p1812
aS'useCentreTIOffsets'
p1813
ag1159
asg14
I00
sg793
g0
(g74
g2
Ntp1814
Rp1815
(dp1816
g14
I00
sg32
I01
sg64
g78
sg15
I00
sbsg15
I00
sg1809
g0
(g60
g2
Ntp1817
Rp1818
(dp1819
g14
I00
sg32
I00
sg64
I00
sg15
I00
sbsg17
g18
sg1810
g0
(g60
g2
Ntp1820
Rp1821
(dp1822
g14
I00
sg32
I01
sg64
I01
sg15
I00
sbsg1708
g0
(g74
g2
Ntp1823
Rp1824
(dp1825
g14
I00
sg32
I01
sg64
g78
sg15
I00
sbsg1811
g0
(g60
g2
Ntp1826
Rp1827
(dp1828
g14
I00
sg32
I01
sg64
I00
sg15
I00
sbsg1808
g0
(g60
g2
Ntp1829
Rp1830
(dp1831
g14
I00
sg32
I01
sg64
I00
sg15
I00
sbsg16
I40
sg1813
g0
(g60
g2
Ntp1832
Rp1833
(dp1834
g14
I00
sg32
I01
sg64
I00
sg15
I00
sbsg34
g1803
sg1812
g0
(g60
g2
Ntp1835
Rp1836
(dp1837
g14
I00
sg32
I01
sg64
I01
sg15
I00
sbsg1159
g0
(g60
g2
Ntp1838
Rp1839
(dp1840
g14
I00
sg32
I01
sg64
I01
sg15
I00
sbsg35
g1803
sbsS'EcalBarrelGeometryFromDBEP'
p1841
g0
(g7
g2
Ntp1842
Rp1843
(dp1844
g11
(lp1845
g1159
asg14
I00
sg15
I01
sg16
I40
sg17
g18
sg34
g1841
sg1159
g0
(g60
g2
Ntp1846
Rp1847
(dp1848
g14
I00
sg32
I01
sg64
I01
sg15
I01
sbsg35
g1841
sbsS'trackerNumberingGeometryDB'
p1849
g0
(g7
g2
Ntp1850
Rp1851
(dp1852
g11
(lp1853
g793
ag1707
asg14
I00
sg793
g0
(g74
g2
Ntp1854
Rp1855
(dp1856
g14
I00
sg32
I01
sg64
g78
sg15
I00
sbsg15
I00
sg16
I40
sg17
g18
sg34
g1849
sg1707
g0
(g60
g2
Ntp1857
Rp1858
(dp1859
g14
I00
sg32
I01
sg64
I00
sg15
I00
sbsg35
S'TrackerGeometricDetESModule'
p1860
sbsS'_Process__name'
p1861
S'PCA'
p1862
sg295
g266
sS'_Process__endpaths'
p1863
g0
(g1727
g1728
(dp1864
tp1865
Rp1866
(dp1867
g1733
(lp1868
sbsS'_cloneToObjectDict'
p1869
(dp1870
I140650885583504
g0
(g7
g2
Ntp1871
Rp1872
(dp1873
g11
(lp1874
g1159
ag1160
asg14
I00
sg15
I01
sg16
I40
sg17
g18
sg1160
g0
(g826
g2
Ntp1875
Rp1876
(dp1877
g14
I00
sg32
I01
sg15
I00
sg1164
g0
(g66
g2
Ntp1878
Rp1879
(dp1880
g14
I00
sg32
I01
sg64
I3
sg15
I00
sbsg1168
g0
(g66
g2
Ntp1881
Rp1882
(dp1883
g14
I00
sg32
I01
sg64
I2
sg15
I00
sbsg11
(lp1884
g1164
ag1168
ag1173
asg1173
g0
(g74
g2
Ntp1885
Rp1886
(dp1887
g14
I00
sg32
I01
sg64
g1177
sg15
I00
sbsbsg34
S'HcalGeometryFromDBEP'
p1888
sg1159
g0
(g60
g2
Ntp1889
Rp1890
(dp1891
g14
I00
sg32
I01
sg64
I01
sg15
I01
sbsg35
g1888
sbsI140650885346512
g386
sI140650885604368
g0
(g7
g2
Ntp1892
Rp1893
(dp1894
g11
(lp1895
g793
asg14
I00
sg793
g0
(g74
g2
Ntp1896
Rp1897
(dp1898
g14
I00
sg32
I01
sg64
g78
sg15
I00
sbsg15
I00
sg16
I40
sg17
g18
sg34
S'hcalDDDRecConstants'
p1899
sg35
S'HcalDDDRecConstantsESModule'
p1900
sbsI140650885586832
g0
(g7
g2
Ntp1901
Rp1902
(dp1903
g11
(lp1904
sg14
I00
sg15
I00
sg16
I40
sg17
g18
sg34
S'EcalElectronicsMappingBuilder'
p1905
sg35
g1905
sbsI140650885605264
g0
(g7
g2
Ntp1906
Rp1907
(dp1908
g11
(lp1909
g793
asg14
I00
sg793
g0
(g74
g2
Ntp1910
Rp1911
(dp1912
g14
I00
sg32
I01
sg64
g1716
sg15
I01
sbsg15
I01
sg16
I5
sg17
S'/cvmfs/cms.cern.ch/slc6_amd64_gcc530/cms/cmssw/CMSSW_8_0_28/python/Alignment/CommonAlignmentProducer/fakeForIdealAlignmentProducer_cfi.py'
p1913
sg34
S'fakeForIdealAlignment'
p1914
sg35
S'FakeAlignmentProducer'
p1915
sbsI140650885781584
g538
sI140650885605520
g0
(g7
g2
Ntp1916
Rp1917
(dp1918
g11
(lp1919
g793
ag1808
ag1809
ag1810
ag1708
ag1811
ag1812
ag1813
ag1159
asg14
I00
sg793
g0
(g74
g2
Ntp1920
Rp1921
(dp1922
g14
I00
sg32
I01
sg64
g1712
sg15
I01
sbsg15
I01
sg1809
g0
(g60
g2
Ntp1923
Rp1924
(dp1925
g14
I00
sg32
I00
sg64
I00
sg15
I00
sbsg17
S'/cvmfs/cms.cern.ch/slc6_amd64_gcc530/cms/cmssw/CMSSW_8_0_28/python/Geometry/CSCGeometryBuilder/idealForDigiCscGeometryDB_cff.py'
p1926
sg1810
g0
(g60
g2
Ntp1927
Rp1928
(dp1929
g14
I00
sg32
I01
sg64
I01
sg15
I00
sbsg1708
g0
(g74
g2
Ntp1930
Rp1931
(dp1932
g14
I00
sg32
I01
sg64
g1716
sg15
I01
sbsg1811
g0
(g60
g2
Ntp1933
Rp1934
(dp1935
g14
I00
sg32
I01
sg64
I00
sg15
I00
sbsg1808
g0
(g60
g2
Ntp1936
Rp1937
(dp1938
g14
I00
sg32
I01
sg64
I00
sg15
I00
sbsg16
I8
sg1813
g0
(g60
g2
Ntp1939
Rp1940
(dp1941
g14
I00
sg32
I01
sg64
I00
sg15
I00
sbsg34
S'idealForDigiCSCGeometry'
p1942
sg1812
g0
(g60
g2
Ntp1943
Rp1944
(dp1945
g14
I00
sg32
I01
sg64
I01
sg15
I00
sbsg1159
g0
(g60
g2
Ntp1946
Rp1947
(dp1948
g14
I00
sg32
I01
sg64
I00
sg15
I01
sbsg35
g1803
sbsI140650886068432
g0
(g7
g2
Ntp1949
Rp1950
(dp1951
g11
(lp1952
sg14
I00
sg15
I00
sg16
I40
sg17
g18
sg34
S'GlobalTrackingGeometryESProducer'
p1953
sg35
g1953
sbsI140650885585232
g0
(g7
g2
Ntp1954
Rp1955
(dp1956
g11
(lp1957
sg14
I00
sg15
I00
sg16
I40
sg17
g18
sg34
S'CaloTowerTopologyEP'
p1958
sg35
g1958
sbsI140650885585744
g0
(g7
g2
Ntp1959
Rp1960
(dp1961
g11
(lp1962
g1159
asg14
I00
sg15
I00
sg16
I40
sg17
g18
sg34
S'ZdcGeometryFromDBEP'
p1963
sg1159
g0
(g60
g2
Ntp1964
Rp1965
(dp1966
g14
I00
sg32
I01
sg64
I00
sg15
I00
sbsg35
g1963
sbsI140650886069200
g1787
sI140650885815376
g243
sI140650885653584
g0
(g7
g2
Ntp1967
Rp1968
(dp1969
g11
(lp1970
S'version'
p1971
ag1773
ag744
asg14
I00
sg15
I01
sg16
I40
sg17
g18
sg744
g0
(g74
g2
Ntp1972
Rp1973
(dp1974
g14
I00
sg32
I00
sg64
S'ParabolicMf'
p1975
sg15
I01
sbsg1971
g0
(g74
g2
Ntp1976
Rp1977
(dp1978
g14
I00
sg32
I01
sg64
S'Parabolic'
p1979
sg15
I00
sbsg1773
g0
(g66
g2
Ntp1980
Rp1981
(dp1982
g14
I00
sg32
I01
sg64
I18268
sg15
I01
sbsg34
S'ParabolicParametrizedMagneticFieldProducer'
p1983
sg35
S'AutoParametrizedMagneticFieldProducer'
p1984
sbsI140650885348816
g663
sI140650885813776
g705
sI140650885726416
g801
sI140650885812496
g137
sI140650885378448
g1636
sI140650885726672
g1564
sI140650885814608
g467
sI140650885653072
g1770
sI140650885780240
g618
sI140650885813520
g1447
sI140650885584016
g0
(g7
g2
Ntp1985
Rp1986
(dp1987
g11
(lp1988
sg14
I00
sg15
I00
sg16
I40
sg17
g18
sg34
S'HcalAlignmentEP'
p1989
sg35
g1989
sbsI140650885379472
g1557
sI140650885654096
g52
sI140650885379728
g1587
sI140650886068624
g0
(g7
g2
Ntp1990
Rp1991
(dp1992
g11
(lp1993
g793
asg14
I00
sg793
g0
(g74
g2
Ntp1994
Rp1995
(dp1996
g14
I00
sg32
I01
sg64
g78
sg15
I00
sbsg15
I00
sg16
I40
sg17
g18
sg34
S'trackerTopology'
p1997
sg35
S'TrackerTopologyEP'
p1998
sbsI140650885814800
g1488
sI140650886068240
g0
(g7
g2
Ntp1999
Rp2000
(dp2001
g11
(lp2002
g793
ag1707
ag1159
ag1708
asg14
I00
sg793
g0
(g74
g2
Ntp2003
Rp2004
(dp2005
g14
I00
sg32
I01
sg64
g78
sg15
I00
sbsg15
I00
sg1708
g0
(g74
g2
Ntp2006
Rp2007
(dp2008
g14
I00
sg32
I01
sg64
g78
sg15
I00
sbsg17
g18
sg16
I40
sg34
S'trackerGeometryDB'
p2009
sg1707
g0
(g60
g2
Ntp2010
Rp2011
(dp2012
g14
I00
sg32
I01
sg64
I00
sg15
I00
sbsg1159
g0
(g60
g2
Ntp2013
Rp2014
(dp2015
g14
I00
sg32
I01
sg64
I01
sg15
I00
sbsg35
g1724
sbsI140650885586064
g1512
sI140650885655632
g41
sI140650886067408
g1753
sI140650886069648
g9
sI140650885815824
g266
sI140650885606992
g740
sI140650885813712
g1476
sI140650886070160
g0
(g7
g2
Ntp2016
Rp2017
(dp2018
g11
(lp2019
g1159
asg14
I00
sg15
I01
sg16
I40
sg17
g18
sg34
S'EcalPreshowerGeometryFromDBEP'
p2020
sg1159
g0
(g60
g2
Ntp2021
Rp2022
(dp2023
g14
I00
sg32
I01
sg64
I01
sg15
I01
sbsg35
g2020
sbsI140650885345360
g301
sI140650885349264
g717
sI140650885812688
g598
sI140650885345872
g328
sI140650885346384
g415
sI140650885814032
g1616
sI140650886067792
g1851
sI140650885654544
g523
sI140650886068816
g1205
sI140650886806352
g1667
sI140650885782480
g144
sI140650885655888
g1742
sI140650885586384
g1545
sI140650886066768
g0
(g7
g2
Ntp2024
Rp2025
(dp2026
g11
(lp2027
g1808
aS'compatibiltyWith11'
p2028
asg14
I00
sg15
I00
sg16
I40
sg17
g18
sg1808
g0
(g60
g2
Ntp2029
Rp2030
(dp2031
g14
I00
sg32
I00
sg64
I00
sg15
I00
sbsg2028
g0
(g60
g2
Ntp2032
Rp2033
(dp2034
g14
I00
sg32
I00
sg64
I01
sg15
I00
sbsg34
S'RPCGeometryESModule'
p2035
sg35
g2035
sbsI140650885942928
g1198
sI140650885783248
g194
sI140650885782928
g173
sI140650885812368
g224
sI140650885603536
g1521
sI140650885812624
g587
sI140650885812880
g580
sI140650885604048
g790
sI140650885813136
g531
sI140650885813904
g647
sI140650885604560
g1704
sI140650885379344
g1469
sI140650885606352
g0
(g7
g2
Ntp2036
Rp2037
(dp2038
g11
(lp2039
g793
ag1707
ag1159
ag1708
asg14
I00
sg793
g0
(g74
g2
Ntp2040
Rp2041
(dp2042
g14
I00
sg32
I01
sg64
g1712
sg15
I01
sbsg15
I01
sg1708
g0
(g74
g2
Ntp2043
Rp2044
(dp2045
g14
I00
sg32
I01
sg64
g1716
sg15
I01
sbsg17
S'/cvmfs/cms.cern.ch/slc6_amd64_gcc530/cms/cmssw/CMSSW_8_0_28/python/Geometry/DTGeometryBuilder/idealForDigiDtGeometryDB_cff.py'
p2046
sg16
I8
sg34
S'idealForDigiDTGeometry'
p2047
sg1707
g0
(g60
g2
Ntp2048
Rp2049
(dp2050
g14
I00
sg32
I01
sg64
I00
sg15
I00
sbsg1159
g0
(g60
g2
Ntp2051
Rp2052
(dp2053
g14
I00
sg32
I01
sg64
I00
sg15
I01
sbsg35
g1751
sbsI140650885780880
g1683
sI140650885379600
g611
sI140650885584528
g1156
sI140650885347088
g355
sI140650885814160
g1184
sI140650885953552
g1805
sI140650885585040
g0
(g7
g2
Ntp2054
Rp2055
(dp2056
g11
(lp2057
S'Exclude'
p2058
ag793
asg14
I00
sg793
g0
(g74
g2
Ntp2059
Rp2060
(dp2061
g14
I00
sg32
I01
sg64
g78
sg15
I00
sbsg15
I00
sg16
I40
sg17
g18
sg34
S'hcalTopologyIdeal'
p2062
sg2058
g0
(g74
g2
Ntp2063
Rp2064
(dp2065
g14
I00
sg32
I00
sg64
g78
sg15
I00
sbsg35
S'HcalTopologyIdealEP'
p2066
sbsI140650886068496
g0
(g7
g2
Ntp2067
Rp2068
(dp2069
g11
(lp2070
sg14
I00
sg15
I00
sg16
I40
sg17
g18
sg34
S'TrackerRecoGeometryESProducer'
p2071
sg35
g2071
sbsI140650885781648
g557
sI140650885655504
g84
sI140650885815440
g445
sI140650885655760
g1794
sI140650885348304
g236
sI140650885814416
g452
sI140650885348752
g756
sI140650886070032
g1210
sI140650885780560
g1594
sI140650885783440
g211
sI140650885607376
g1737
sI140650885582928
g1843
sI140650885379856
g1629
sI140650885348176
g515
ssg607
g598
sg281
g467
sg1572
g1564
sg2035
g2025
sg2047
g2037
sg1963
g1960
sg2071
g2068
sg1627
g1587
sg1482
g1476
sg1958
g1955
sg1983
g1968
sg1997
g1991
sg73
g52
sg1888
g1872
sg443
g445
sg1905
g1902
sS'_Process__aliases'
p2072
(dp2073
sg1602
g1594
sg1953
g1950
sg596
g587
sg2009
g2000
sg576
g557
sg1989
g1986
sg2020
g2017
sg1899
g1893
sg1942
g1917
sS'_Process__subProcesses'
p2074
(lp2075
sg2062
g2055
sg135
g137
sS'_Process__schedule'
p2076
g1660
sg439
g415
sS'_Process__modifiers'
p2077
(tsS'_Process__filters'
p2078
(dp2079
g655
g647
sg631
g618
sg188
g173
sg576
g557
sg554
g538
sg607
g598
sg596
g587
sg1572
g1564
sg221
g211
sg703
g705
sg206
g194
sg1445
g1447
sg1602
g1594
sg1482
g1476
sg799
g801
sg233
g224
sg1622
g1616
sg1681
g1683
sg1182
g1184
ssS'_Process__esproducers'
p2080
(dp2081
g6
g9
sg2071
g2068
sg1768
g1770
sg1510
g1512
sg1785
g1787
sg1953
g1950
sg738
g740
sg2009
g2000
sg2062
g2055
sg1989
g1986
sg2020
g2017
sg1899
g1893
sg1803
g1805
sg1841
g1843
sg1849
g1851
sg1905
g1902
sg1543
g1545
sg1942
g1917
sg1154
g1156
sg2035
g2025
sg2047
g2037
sg1963
g1960
sg1751
g1753
sg1208
g1210
sg1702
g1704
sg1958
g1955
sg1983
g1968
sg788
g790
sg1203
g1205
sg1997
g1991
sg1735
g1737
sg1914
g1907
sg1888
g1872
ssS'_Process__partialschedules'
p2082
(dp2083
sg1914
g1907
sb.