ccopy_reg
_reconstructor
p0
(cFWCore.ParameterSet.Config
Process
p1
c__builtin__
object
p2
Ntp3
Rp4
(dp5
S'CaloGeometryBuilder'
p6
g0
(cFWCore.ParameterSet.Modules
ESProducer
p7
g2
Ntp8
Rp9
(dp10
S'_Parameterizable__parameterNames'
p11
(lp12
S'SelectedCalos'
p13
asS'_isFrozen'
p14
I00
sS'_isModified'
p15
I00
sS'_lineNumber'
p16
I40
sS'_filename'
p17
S'/cvmfs/cms.cern.ch/slc6_amd64_gcc530/cms/cmssw/CMSSW_8_0_22/python/FWCore/ParameterSet/Modules.py'
p18
sg13
g0
(cFWCore.ParameterSet.Types
vstring
p19
c__builtin__
list
p20
(lp21
S'HCAL'
p22
aS'ZDC'
p23
aS'CASTOR'
p24
aS'EcalBarrel'
p25
aS'EcalEndcap'
p26
aS'EcalPreshower'
p27
aS'TOWER'
p28
atp29
Rp30
(dp31
g14
I00
sS'_ParameterTypeBase__isTracked'
p32
I01
sg15
I00
sS'_nPerLine'
p33
I1
sbsS'_Labelable__label'
p34
g6
sS'_TypedParameterizable__type'
p35
g6
sbsS'_Process__sequences'
p36
(dp37
S'endOfProcess'
p38
g0
(cFWCore.ParameterSet.SequenceTypes
Sequence
p39
g2
Ntp40
Rp41
(dp42
g14
I00
sS'_seq'
p43
g0
(cFWCore.ParameterSet.SequenceTypes
_SequenceCollection
p44
g2
Ntp45
Rp46
(dp47
S'_collection'
p48
(lp49
g0
(cFWCore.ParameterSet.Modules
EDProducer
p50
g2
Ntp51
Rp52
(dp53
g11
(lp54
S'deleteAfterCopy'
p55
aS'Verbosity'
p56
aS'Frequency'
p57
aS'Name'
p58
aS'MEPathToSave'
p59
asg14
I00
sg15
I00
sg55
g0
(cFWCore.ParameterSet.Types
bool
p60
g2
Ntp61
Rp62
(dp63
g14
I00
sg32
I00
sS'_value'
p64
I01
sg15
I00
sbsg17
S'/cvmfs/cms.cern.ch/slc6_amd64_gcc530/cms/cmssw/CMSSW_8_0_22/python/DQMServices/Components/MEtoEDMConverter_cfi.py'
p65
sg56
g0
(cFWCore.ParameterSet.Types
int32
p66
g2
Ntp67
Rp68
(dp69
g14
I00
sg32
I00
sg64
I0
sg15
I00
sbsg57
g0
(g66
g2
Ntp70
Rp71
(dp72
g14
I00
sg32
I00
sg64
I50
sg15
I00
sbsg16
I10
sg34
S'MEtoEDMConverter'
p73
sg59
g0
(cFWCore.ParameterSet.Types
string
p74
g2
Ntp75
Rp76
(dp77
g14
I00
sg32
I00
sg64
S''
p78
sg15
I00
sbsg35
g73
sg58
g0
(g74
g2
Ntp79
Rp80
(dp81
g14
I00
sg32
I00
sg64
g73
sg15
I00
sbsbasbsg15
I00
sg34
g38
sbsS'hfposFilter'
p82
g0
(g39
g2
Ntp83
Rp84
(dp85
g14
I00
sg43
g0
(g44
g2
Ntp86
Rp87
(dp88
g48
(lp89
g0
(g39
g2
Ntp90
Rp91
(dp92
g14
I00
sg43
g0
(g44
g2
Ntp93
Rp94
(dp95
g48
(lp96
g0
(g50
g2
Ntp97
Rp98
(dp99
g11
(lp100
S'minimumE'
p101
aS'verbose'
p102
aS'minimumEt'
p103
aS'src'
p104
asg14
I00
sg102
g0
(g66
g2
Ntp105
Rp106
(dp107
g14
I00
sg32
I00
sg64
I0
sg15
I00
sbsg104
g0
(cFWCore.ParameterSet.Types
InputTag
p108
g2
Ntp109
Rp110
(dp111
g14
I00
sg32
I01
sg15
I00
sS'_InputTag__moduleLabel'
p112
S'towerMaker'
p113
sS'_InputTag__processName'
p114
g78
sS'_InputTag__productInstance'
p115
g78
sbsg17
S'/afs/cern.ch/work/c/cavalosb/rA/CMSSW_8_0_22/python/HeavyIonsAnalysis/Configuration/hfCoincFilter_cff.py'
p116
sg101
g0
(cFWCore.ParameterSet.Types
double
p117
g2
Ntp118
Rp119
(dp120
g14
I00
sg32
I01
sg64
F3.0
sg15
I00
sbsg16
I8
sg103
g0
(g117
g2
Ntp121
Rp122
(dp123
g14
I00
sg32
I01
sg64
F0.0
sg15
I00
sbsg34
S'towersAboveThreshold'
p124
sg35
S'CaloTowerCandidateCreator'
p125
sg15
I00
sbag0
(cFWCore.ParameterSet.Modules
EDFilter
p126
g2
Ntp127
Rp128
(dp129
g11
(lp130
g104
aS'etaMin'
p131
aS'etaMax'
p132
aS'ptMin'
p133
asg14
I00
sg15
I00
sg104
g0
(g108
g2
Ntp134
Rp135
(dp136
g14
I00
sg32
I01
sg15
I00
sg112
g124
sg114
g78
sg115
g78
sbsg17
g116
sg131
g0
(g117
g2
Ntp137
Rp138
(dp139
g14
I00
sg32
I01
sg64
F3.0
sg15
I00
sbsg16
I16
sg133
g0
(g117
g2
Ntp140
Rp141
(dp142
g14
I00
sg32
I01
sg64
I0
sg15
I00
sbsg34
S'hfPosTowers'
p143
sg132
g0
(g117
g2
Ntp144
Rp145
(dp146
g14
I00
sg32
I01
sg64
F6.0
sg15
I00
sbsg35
S'EtaPtMinCandSelector'
p147
sbasbsg15
I00
sg34
S'hfposTowers'
p148
sbag0
(g126
g2
Ntp149
Rp150
(dp151
g11
(lp152
g104
aS'minNumber'
p153
asg14
I00
sg15
I00
sg153
g0
(cFWCore.ParameterSet.Types
uint32
p154
g2
Ntp155
Rp156
(dp157
g14
I00
sg32
I01
sg64
I1
sg15
I00
sbsg104
g0
(g108
g2
Ntp158
Rp159
(dp160
g14
I00
sg32
I01
sg15
I00
sg112
g143
sg114
g78
sg115
g78
sbsg17
g116
sg16
I39
sg34
S'hfPosFilter'
p161
sg35
S'CandCountFilter'
p162
sbasbsg15
I00
sg34
g82
sbsS'endOfProcess_withComparison'
p163
g0
(g39
g2
Ntp164
Rp165
(dp166
g14
I00
sg43
g0
(g44
g2
Ntp167
Rp168
(dp169
g48
(lp170
g52
ag0
(cFWCore.ParameterSet.Modules
EDAnalyzer
p171
g2
Ntp172
Rp173
(dp174
g11
(lp175
S'Diffgoodness'
p176
aS'processRef'
p177
aS'dirDepth'
p178
aS'KSgoodness'
p179
aS'runInstance'
p180
aS'MEtoEDMLabel'
p181
aS'autoProcess'
p182
aS'processNew'
p183
aS'OverAllgoodness'
p184
aS'lumiInstance'
p185
asg14
I00
sg176
g0
(g117
g2
Ntp186
Rp187
(dp188
g14
I00
sg32
I01
sg64
F0.1
sg15
I00
sbsg177
g0
(g74
g2
Ntp189
Rp190
(dp191
g14
I00
sg32
I01
sg64
S'HLT'
p192
sg15
I00
sbsg15
I00
sg16
I20
sg178
g0
(g154
g2
Ntp193
Rp194
(dp195
g14
I00
sg32
I01
sg64
I1
sg15
I00
sbsg17
S'/cvmfs/cms.cern.ch/slc6_amd64_gcc530/cms/cmssw/CMSSW_8_0_22/python/DQMServices/Components/MEtoMEComparitor_cfi.py'
p196
sg179
g0
(g117
g2
Ntp197
Rp198
(dp199
g14
I00
sg32
I01
sg64
F0.9
sg15
I00
sbsg180
g0
(g74
g2
Ntp200
Rp201
(dp202
g14
I00
sg32
I01
sg64
S'MEtoEDMConverterRun'
p203
sg15
I00
sbsg181
g0
(g74
g2
Ntp204
Rp205
(dp206
g14
I00
sg32
I01
sg64
g73
sg15
I00
sbsg185
g0
(g74
g2
Ntp207
Rp208
(dp209
g14
I00
sg32
I01
sg64
S'MEtoEDMConverterLumi'
p210
sg15
I00
sbsg182
g0
(g60
g2
Ntp211
Rp212
(dp213
g14
I00
sg32
I01
sg64
I01
sg15
I00
sbsg34
S'MEtoMEComparitor'
p214
sg183
g0
(g74
g2
Ntp215
Rp216
(dp217
g14
I00
sg32
I01
sg64
S'RERECO'
p218
sg15
I00
sbsg184
g0
(g117
g2
Ntp219
Rp220
(dp221
g14
I00
sg32
I01
sg64
F0.9
sg15
I00
sbsg35
g214
sbasbsg15
I00
sg34
g163
sbsS'hfCoincFilter'
p222
g0
(g39
g2
Ntp223
Rp224
(dp225
g14
I00
sg43
g0
(g44
g2
Ntp226
Rp227
(dp228
g48
(lp229
g98
ag128
ag0
(g126
g2
Ntp230
Rp231
(dp232
g11
(lp233
g104
ag131
ag132
ag133
asg14
I00
sg15
I00
sg104
g0
(g108
g2
Ntp234
Rp235
(dp236
g14
I00
sg32
I01
sg15
I00
sg112
g124
sg114
g78
sg115
g78
sbsg17
g116
sg131
g0
(g117
g2
Ntp237
Rp238
(dp239
g14
I00
sg32
I01
sg64
F-6.0
sg15
I00
sbsg16
I24
sg133
g0
(g117
g2
Ntp240
Rp241
(dp242
g14
I00
sg32
I01
sg64
I0
sg15
I00
sbsg34
S'hfNegTowers'
p243
sg132
g0
(g117
g2
Ntp244
Rp245
(dp246
g14
I00
sg32
I01
sg64
F-3.0
sg15
I00
sbsg35
g147
sbag150
ag0
(g126
g2
Ntp247
Rp248
(dp249
g11
(lp250
g104
ag153
asg14
I00
sg15
I00
sg153
g0
(g154
g2
Ntp251
Rp252
(dp253
g14
I00
sg32
I01
sg64
I1
sg15
I00
sbsg104
g0
(g108
g2
Ntp254
Rp255
(dp256
g14
I00
sg32
I01
sg15
I00
sg112
g243
sg114
g78
sg115
g78
sbsg17
g116
sg16
I45
sg34
S'hfNegFilter'
p257
sg35
g162
sbasbsg15
I00
sg34
g222
sbsS'vectMonW'
p258
g0
(g39
g2
Ntp259
Rp260
(dp261
g14
I00
sg43
g0
(g44
g2
Ntp262
Rp263
(dp264
g48
(lp265
g0
(g171
g2
Ntp266
Rp267
(dp268
g11
(lp269
S'start'
p270
ag104
aS'end'
p271
aS'Nbins'
p272
asg14
I00
sg271
g0
(g117
g2
Ntp273
Rp274
(dp275
g14
I00
sg32
I00
sg64
I600
sg15
I00
sbsg15
I00
sg272
g0
(g66
g2
Ntp276
Rp277
(dp278
g14
I00
sg32
I00
sg64
I600
sg15
I00
sbsg104
g0
(g108
g2
Ntp279
Rp280
(dp281
g14
I00
sg32
I00
sg15
I00
sg112
S'Noff'
p282
sg114
g78
sg115
g78
sbsg17
S'/afs/cern.ch/work/c/cavalosb/rA/CMSSW_8_0_22/src/QW/UPCridgeAnalysis/python/pPb_HM_eff.py'
p283
sg270
g0
(g117
g2
Ntp284
Rp285
(dp286
g14
I00
sg32
I00
sg64
I0
sg15
I00
sbsg16
I30
sg34
S'histNoff'
p287
sg35
S'QWHistAnalyzer'
p288
sbag0
(g171
g2
Ntp289
Rp290
(dp291
g11
(lp292
g104
aS'hend'
p293
aS'hstart'
p294
aS'cNbins'
p295
aS'cstart'
p296
aS'hNbins'
p297
aS'cend'
p298
asg14
I00
sg295
g0
(g66
g2
Ntp299
Rp300
(dp301
g14
I00
sg32
I00
sg64
I1000
sg15
I00
sbsg15
I00
sg104
g0
(g108
g2
Ntp302
Rp303
(dp304
g14
I00
sg32
I00
sg15
I00
sg112
S'QWEvent'
p305
sg114
g78
sg115
S'phi'
p306
sbsg17
g283
sg294
g0
(g117
g2
Ntp307
Rp308
(dp309
g14
I00
sg32
I00
sg64
I0
sg15
I00
sbsg293
g0
(g117
g2
Ntp310
Rp311
(dp312
g14
I00
sg32
I00
sg64
I5000
sg15
I00
sbsg296
g0
(g117
g2
Ntp313
Rp314
(dp315
g14
I00
sg32
I00
sg64
F-3.141592653589793
sg15
I00
sbsg16
I40
sg298
g0
(g117
g2
Ntp316
Rp317
(dp318
g14
I00
sg32
I00
sg64
F3.141592653589793
sg15
I00
sbsg34
S'vectPhi'
p319
sg297
g0
(g66
g2
Ntp320
Rp321
(dp322
g14
I00
sg32
I00
sg64
I5000
sg15
I00
sbsg35
S'QWVectorAnalyzer'
p323
sbag0
(g171
g2
Ntp324
Rp325
(dp326
g11
(lp327
g104
ag293
ag294
ag295
ag296
ag297
ag298
asg14
I00
sg295
g0
(g66
g2
Ntp328
Rp329
(dp330
g14
I00
sg32
I00
sg64
I1000
sg15
I00
sbsg15
I00
sg104
g0
(g108
g2
Ntp331
Rp332
(dp333
g14
I00
sg32
I00
sg15
I00
sg112
g305
sg114
g78
sg115
S'pt'
p334
sbsg17
g283
sg294
g0
(g117
g2
Ntp335
Rp336
(dp337
g14
I00
sg32
I00
sg64
I0
sg15
I00
sbsg293
g0
(g117
g2
Ntp338
Rp339
(dp340
g14
I00
sg32
I00
sg64
I5000
sg15
I00
sbsg296
g0
(g117
g2
Ntp341
Rp342
(dp343
g14
I00
sg32
I00
sg64
I0
sg15
I00
sbsg16
I50
sg298
g0
(g117
g2
Ntp344
Rp345
(dp346
g14
I00
sg32
I00
sg64
I5
sg15
I00
sbsg34
S'vectPt'
p347
sg297
g0
(g66
g2
Ntp348
Rp349
(dp350
g14
I00
sg32
I00
sg64
I5000
sg15
I00
sbsg35
g323
sbag0
(g171
g2
Ntp351
Rp352
(dp353
g11
(lp354
g104
ag293
ag294
ag295
ag296
ag297
ag298
asg14
I00
sg295
g0
(g66
g2
Ntp355
Rp356
(dp357
g14
I00
sg32
I00
sg64
I1000
sg15
I00
sbsg15
I00
sg104
g0
(g108
g2
Ntp358
Rp359
(dp360
g14
I00
sg32
I00
sg15
I00
sg112
g305
sg114
g78
sg115
S'eta'
p361
sbsg17
g283
sg294
g0
(g117
g2
Ntp362
Rp363
(dp364
g14
I00
sg32
I00
sg64
I0
sg15
I00
sbsg293
g0
(g117
g2
Ntp365
Rp366
(dp367
g14
I00
sg32
I00
sg64
I5000
sg15
I00
sbsg296
g0
(g117
g2
Ntp368
Rp369
(dp370
g14
I00
sg32
I00
sg64
F-2.5
sg15
I00
sbsg16
I60
sg298
g0
(g117
g2
Ntp371
Rp372
(dp373
g14
I00
sg32
I00
sg64
F2.5
sg15
I00
sbsg34
S'vectEta'
p374
sg297
g0
(g66
g2
Ntp375
Rp376
(dp377
g14
I00
sg32
I00
sg64
I5000
sg15
I00
sbsg35
g323
sbag0
(g171
g2
Ntp378
Rp379
(dp380
g11
(lp381
g104
ag295
ag294
ag293
ag296
aS'srcW'
p382
ag297
ag298
asg14
I00
sg293
g0
(g117
g2
Ntp383
Rp384
(dp385
g14
I00
sg32
I00
sg64
I5000
sg15
I00
sbsg15
I00
sg104
g0
(g108
g2
Ntp386
Rp387
(dp388
g14
I00
sg32
I00
sg15
I00
sg112
g305
sg115
g306
sg114
g78
sbsg17
g283
sg294
g0
(g117
g2
Ntp389
Rp390
(dp391
g14
I00
sg32
I00
sg64
I0
sg15
I00
sbsg295
g0
(g66
g2
Ntp392
Rp393
(dp394
g14
I00
sg32
I00
sg64
I1000
sg15
I00
sbsg296
g0
(g117
g2
Ntp395
Rp396
(dp397
g14
I00
sg32
I00
sg64
F-3.141592653589793
sg15
I00
sbsg298
g0
(g117
g2
Ntp398
Rp399
(dp400
g14
I00
sg32
I00
sg64
F3.141592653589793
sg15
I00
sbsg16
I64
sg382
g0
(g108
g2
Ntp401
Rp402
(dp403
g14
I00
sg32
I00
sg15
I00
sg112
g305
sg114
g78
sg115
S'weight'
p404
sbsg34
S'vectPhiW'
p405
sg297
g0
(g66
g2
Ntp406
Rp407
(dp408
g14
I00
sg32
I00
sg64
I5000
sg15
I00
sbsg35
g323
sbag0
(g171
g2
Ntp409
Rp410
(dp411
g11
(lp412
g104
ag295
ag294
ag293
ag296
ag382
ag297
ag298
asg14
I00
sg293
g0
(g117
g2
Ntp413
Rp414
(dp415
g14
I00
sg32
I00
sg64
I5000
sg15
I00
sbsg15
I00
sg104
g0
(g108
g2
Ntp416
Rp417
(dp418
g14
I00
sg32
I00
sg15
I00
sg112
g305
sg115
g334
sg114
g78
sbsg17
g283
sg294
g0
(g117
g2
Ntp419
Rp420
(dp421
g14
I00
sg32
I00
sg64
I0
sg15
I00
sbsg295
g0
(g66
g2
Ntp422
Rp423
(dp424
g14
I00
sg32
I00
sg64
I1000
sg15
I00
sbsg296
g0
(g117
g2
Ntp425
Rp426
(dp427
g14
I00
sg32
I00
sg64
I0
sg15
I00
sbsg298
g0
(g117
g2
Ntp428
Rp429
(dp430
g14
I00
sg32
I00
sg64
I5
sg15
I00
sbsg16
I63
sg382
g0
(g108
g2
Ntp431
Rp432
(dp433
g14
I00
sg32
I00
sg15
I00
sg112
g305
sg114
g78
sg115
g404
sbsg34
S'vectPtW'
p434
sg297
g0
(g66
g2
Ntp435
Rp436
(dp437
g14
I00
sg32
I00
sg64
I5000
sg15
I00
sbsg35
g323
sbag0
(g171
g2
Ntp438
Rp439
(dp440
g11
(lp441
g104
ag295
ag294
ag293
ag296
ag382
ag297
ag298
asg14
I00
sg293
g0
(g117
g2
Ntp442
Rp443
(dp444
g14
I00
sg32
I00
sg64
I5000
sg15
I00
sbsg15
I00
sg104
g0
(g108
g2
Ntp445
Rp446
(dp447
g14
I00
sg32
I00
sg15
I00
sg112
g305
sg115
g361
sg114
g78
sbsg17
g283
sg294
g0
(g117
g2
Ntp448
Rp449
(dp450
g14
I00
sg32
I00
sg64
I0
sg15
I00
sbsg295
g0
(g66
g2
Ntp451
Rp452
(dp453
g14
I00
sg32
I00
sg64
I1000
sg15
I00
sbsg296
g0
(g117
g2
Ntp454
Rp455
(dp456
g14
I00
sg32
I00
sg64
F-2.5
sg15
I00
sbsg298
g0
(g117
g2
Ntp457
Rp458
(dp459
g14
I00
sg32
I00
sg64
F2.5
sg15
I00
sbsg16
I62
sg382
g0
(g108
g2
Ntp460
Rp461
(dp462
g14
I00
sg32
I00
sg15
I00
sg112
g305
sg114
g78
sg115
g404
sbsg34
S'vectEtaW'
p463
sg297
g0
(g66
g2
Ntp464
Rp465
(dp466
g14
I00
sg32
I00
sg64
I5000
sg15
I00
sbsg35
g323
sbasbsg15
I00
sg34
g258
sbsS'hfnegFilter2'
p467
g0
(g39
g2
Ntp468
Rp469
(dp470
g14
I00
sg43
g0
(g44
g2
Ntp471
Rp472
(dp473
g48
(lp474
g0
(g39
g2
Ntp475
Rp476
(dp477
g14
I00
sg43
g0
(g44
g2
Ntp478
Rp479
(dp480
g48
(lp481
g98
ag231
asbsg15
I00
sg34
S'hfnegTowers'
p482
sbag0
(g126
g2
Ntp483
Rp484
(dp485
g11
(lp486
g104
ag153
asg14
I00
sg15
I00
sg153
g0
(g154
g2
Ntp487
Rp488
(dp489
g14
I00
sg32
I01
sg64
I2
sg15
I00
sbsg104
g0
(g108
g2
Ntp490
Rp491
(dp492
g14
I00
sg32
I01
sg15
I00
sg112
g243
sg115
g78
sg114
g78
sbsg17
g116
sg16
I68
sg34
S'hfNegFilter2'
p493
sg35
g162
sbasbsg15
I00
sg34
g467
sbsS'hfnegFilter3'
p494
g0
(g39
g2
Ntp495
Rp496
(dp497
g14
I00
sg43
g0
(g44
g2
Ntp498
Rp499
(dp500
g48
(lp501
g476
ag0
(g126
g2
Ntp502
Rp503
(dp504
g11
(lp505
g104
ag153
asg14
I00
sg15
I00
sg153
g0
(g154
g2
Ntp506
Rp507
(dp508
g14
I00
sg32
I01
sg64
I3
sg15
I00
sbsg104
g0
(g108
g2
Ntp509
Rp510
(dp511
g14
I00
sg32
I01
sg15
I00
sg112
g243
sg115
g78
sg114
g78
sbsg17
g116
sg16
I87
sg34
S'hfNegFilter3'
p512
sg35
g162
sbasbsg15
I00
sg34
g494
sbsS'makeEvent'
p513
g0
(g39
g2
Ntp514
Rp515
(dp516
g14
I00
sg43
g0
(g44
g2
Ntp517
Rp518
(dp519
g48
(lp520
g0
(g50
g2
Ntp521
Rp522
(dp523
g11
(lp524
S'trackSrc'
p525
aS'vertexSrc'
p526
asg14
I00
sg15
I00
sg525
g0
(g108
g2
Ntp527
Rp528
(dp529
g14
I00
sg32
I00
sg15
I00
sg112
S'generalTracks'
p530
sg114
g78
sg115
g78
sbsg17
g283
sg16
I5
sg526
g0
(g108
g2
Ntp531
Rp532
(dp533
g14
I00
sg32
I00
sg15
I00
sg112
S'offlinePrimaryVertices'
p534
sg114
g78
sg115
g78
sbsg34
g282
sg35
S'QWNtrkOfflineProducer'
p535
sbag0
(g50
g2
Ntp536
Rp537
(dp538
g11
(lp539
g525
aS'ptMax'
p540
aS'centralitySrc'
p541
aS'Etamin'
p542
aS'pterrorpt'
p543
aS'dzdzerror'
p544
ag526
aS'fweight'
p545
aS'd0d0error'
p546
aS'Etamax'
p547
ag133
asg14
I00
sg546
g0
(g117
g2
Ntp548
Rp549
(dp550
g14
I00
sg32
I00
sg64
F3.0
sg15
I00
sbsg15
I01
sg525
g0
(g108
g2
Ntp551
Rp552
(dp553
g14
I00
sg32
I00
sg15
I00
sg112
g530
sg114
g78
sg115
g78
sbsg547
g0
(g117
g2
Ntp554
Rp555
(dp556
g14
I00
sg32
I00
sg64
F2.4
sg15
I00
sbsg133
g0
(g117
g2
Ntp557
Rp558
(dp559
g14
I00
sg32
I00
sg64
F0.3
sg15
I00
sbsg542
g0
(g117
g2
Ntp560
Rp561
(dp562
g14
I00
sg32
I00
sg64
F-2.4
sg15
I00
sbsg543
g0
(g117
g2
Ntp563
Rp564
(dp565
g14
I00
sg32
I00
sg64
F0.1
sg15
I00
sbsg16
I20
sg544
g0
(g117
g2
Ntp566
Rp567
(dp568
g14
I00
sg32
I00
sg64
F3.0
sg15
I00
sbsg17
g283
sg34
g305
sg545
g0
(g108
g2
Ntp569
Rp570
(dp571
g14
I00
sg32
I00
sg15
I00
sg112
S'NA'
p572
sg114
g78
sg115
g78
sbsg540
g0
(g117
g2
Ntp573
Rp574
(dp575
g14
I00
sg32
I00
sg64
F3.0
sg15
I00
sbsg541
g0
(g108
g2
Ntp576
Rp577
(dp578
g14
I00
sg32
I00
sg15
I00
sg112
g282
sg114
g78
sg115
g78
sbsg35
S'QWEventProducer'
p579
sg526
g0
(g108
g2
Ntp580
Rp581
(dp582
g14
I00
sg32
I00
sg15
I00
sg112
g534
sg114
g78
sg115
g78
sbsbasbsg15
I00
sg34
g513
sbsS'hfnegFilter4'
p583
g0
(g39
g2
Ntp584
Rp585
(dp586
g14
I00
sg43
g0
(g44
g2
Ntp587
Rp588
(dp589
g48
(lp590
g476
ag0
(g126
g2
Ntp591
Rp592
(dp593
g11
(lp594
g104
ag153
asg14
I00
sg15
I00
sg153
g0
(g154
g2
Ntp595
Rp596
(dp597
g14
I00
sg32
I01
sg64
I4
sg15
I00
sbsg104
g0
(g108
g2
Ntp598
Rp599
(dp600
g14
I00
sg32
I01
sg15
I00
sg112
g243
sg115
g78
sg114
g78
sbsg17
g116
sg16
I107
sg34
S'hfNegFilter4'
p601
sg35
g162
sbasbsg15
I00
sg34
g583
sbsS'hfnegFilter5'
p602
g0
(g39
g2
Ntp603
Rp604
(dp605
g14
I00
sg43
g0
(g44
g2
Ntp606
Rp607
(dp608
g48
(lp609
g476
ag0
(g126
g2
Ntp610
Rp611
(dp612
g11
(lp613
g104
ag153
asg14
I00
sg15
I00
sg153
g0
(g154
g2
Ntp614
Rp615
(dp616
g14
I00
sg32
I01
sg64
I5
sg15
I00
sbsg104
g0
(g108
g2
Ntp617
Rp618
(dp619
g14
I00
sg32
I01
sg15
I00
sg112
g243
sg115
g78
sg114
g78
sbsg17
g116
sg16
I126
sg34
S'hfNegFilter5'
p620
sg35
g162
sbasbsg15
I00
sg34
g602
sbsS'hfnegFilter'
p621
g0
(g39
g2
Ntp622
Rp623
(dp624
g14
I00
sg43
g0
(g44
g2
Ntp625
Rp626
(dp627
g48
(lp628
g476
ag248
asbsg15
I00
sg34
g621
sbsS'vectMon'
p629
g0
(g39
g2
Ntp630
Rp631
(dp632
g14
I00
sg43
g0
(g44
g2
Ntp633
Rp634
(dp635
g48
(lp636
g267
ag290
ag325
ag352
asbsg15
I00
sg34
g629
sbsS'eventSelection'
p637
g0
(g39
g2
Ntp638
Rp639
(dp640
g14
I00
sg43
g0
(g44
g2
Ntp641
Rp642
(dp643
g48
(lp644
g224
ag0
(g126
g2
Ntp645
Rp646
(dp647
g11
(lp648
S'filter'
p649
ag104
aS'cut'
p650
asg14
I00
sg650
g0
(g74
g2
Ntp651
Rp652
(dp653
g14
I00
sg32
I01
sg64
S'!isFake && abs(z) <= 25 && position.Rho <= 2 && tracksSize >= 2'
p654
sg15
I00
sbsg15
I00
sg104
g0
(g108
g2
Ntp655
Rp656
(dp657
g14
I00
sg32
I01
sg15
I00
sg112
g534
sg114
g78
sg115
g78
sbsg17
S'/afs/cern.ch/work/c/cavalosb/rA/CMSSW_8_0_22/src/QW/UPCridgeAnalysis/python/test.py'
p658
sg649
g0
(g60
g2
Ntp659
Rp660
(dp661
g14
I00
sg32
I01
sg64
I01
sg15
I00
sbsg16
I97
sg34
S'PAprimaryVertexFilter'
p662
sg35
S'VertexSelector'
p663
sbag0
(g126
g2
Ntp664
Rp665
(dp666
g11
(lp667
S'debugOn'
p668
aS'thresh'
p669
aS'numtrack'
p670
aS'applyfilter'
p671
asg14
I00
sg15
I00
sg668
g0
(g60
g2
Ntp672
Rp673
(dp674
g14
I00
sg32
I00
sg64
I00
sg15
I00
sbsg671
g0
(g60
g2
Ntp675
Rp676
(dp677
g14
I00
sg32
I00
sg64
I01
sg15
I00
sbsg16
I104
sg669
g0
(g117
g2
Ntp678
Rp679
(dp680
g14
I00
sg32
I00
sg64
F0.25
sg15
I00
sbsg670
g0
(g154
g2
Ntp681
Rp682
(dp683
g14
I00
sg32
I00
sg64
I10
sg15
I00
sbsg17
g658
sg34
S'NoScraping'
p684
sg35
S'FilterOutScraping'
p685
sbasbsg15
I00
sg34
g637
sbsg148
g91
sg482
g476
sS'hfCoincFilter4'
p686
g0
(g39
g2
Ntp687
Rp688
(dp689
g14
I00
sg43
g0
(g44
g2
Ntp690
Rp691
(dp692
g48
(lp693
g98
ag128
ag231
ag0
(g126
g2
Ntp694
Rp695
(dp696
g11
(lp697
g104
ag153
asg14
I00
sg15
I00
sg153
g0
(g154
g2
Ntp698
Rp699
(dp700
g14
I00
sg32
I01
sg64
I4
sg15
I00
sbsg104
g0
(g108
g2
Ntp701
Rp702
(dp703
g14
I00
sg32
I01
sg15
I00
sg112
g143
sg115
g78
sg114
g78
sbsg17
g116
sg16
I106
sg34
S'hfPosFilter4'
p704
sg35
g162
sbag592
asbsg15
I00
sg34
g686
sbsS'hfCoincFilter5'
p705
g0
(g39
g2
Ntp706
Rp707
(dp708
g14
I00
sg43
g0
(g44
g2
Ntp709
Rp710
(dp711
g48
(lp712
g98
ag128
ag231
ag0
(g126
g2
Ntp713
Rp714
(dp715
g11
(lp716
g104
ag153
asg14
I00
sg15
I00
sg153
g0
(g154
g2
Ntp717
Rp718
(dp719
g14
I00
sg32
I01
sg64
I5
sg15
I00
sbsg104
g0
(g108
g2
Ntp720
Rp721
(dp722
g14
I00
sg32
I01
sg15
I00
sg112
g143
sg115
g78
sg114
g78
sbsg17
g116
sg16
I125
sg34
S'hfPosFilter5'
p723
sg35
g162
sbag611
asbsg15
I00
sg34
g705
sbsS'hfposFilter4'
p724
g0
(g39
g2
Ntp725
Rp726
(dp727
g14
I00
sg43
g0
(g44
g2
Ntp728
Rp729
(dp730
g48
(lp731
g91
ag695
asbsg15
I00
sg34
g724
sbsS'hfposFilter5'
p732
g0
(g39
g2
Ntp733
Rp734
(dp735
g14
I00
sg43
g0
(g44
g2
Ntp736
Rp737
(dp738
g48
(lp739
g91
ag714
asbsg15
I00
sg34
g732
sbsS'hfposFilter2'
p740
g0
(g39
g2
Ntp741
Rp742
(dp743
g14
I00
sg43
g0
(g44
g2
Ntp744
Rp745
(dp746
g48
(lp747
g91
ag0
(g126
g2
Ntp748
Rp749
(dp750
g11
(lp751
g104
ag153
asg14
I00
sg15
I00
sg153
g0
(g154
g2
Ntp752
Rp753
(dp754
g14
I00
sg32
I01
sg64
I2
sg15
I00
sbsg104
g0
(g108
g2
Ntp755
Rp756
(dp757
g14
I00
sg32
I01
sg15
I00
sg112
g143
sg115
g78
sg114
g78
sbsg17
g116
sg16
I67
sg34
S'hfPosFilter2'
p758
sg35
g162
sbasbsg15
I00
sg34
g740
sbsS'hfposFilter3'
p759
g0
(g39
g2
Ntp760
Rp761
(dp762
g14
I00
sg43
g0
(g44
g2
Ntp763
Rp764
(dp765
g48
(lp766
g91
ag0
(g126
g2
Ntp767
Rp768
(dp769
g11
(lp770
g104
ag153
asg14
I00
sg15
I00
sg153
g0
(g154
g2
Ntp771
Rp772
(dp773
g14
I00
sg32
I01
sg64
I3
sg15
I00
sbsg104
g0
(g108
g2
Ntp774
Rp775
(dp776
g14
I00
sg32
I01
sg15
I00
sg112
g143
sg115
g78
sg114
g78
sbsg17
g116
sg16
I86
sg34
S'hfPosFilter3'
p777
sg35
g162
sbasbsg15
I00
sg34
g759
sbsS'hfCoincFilter2'
p778
g0
(g39
g2
Ntp779
Rp780
(dp781
g14
I00
sg43
g0
(g44
g2
Ntp782
Rp783
(dp784
g48
(lp785
g98
ag128
ag231
ag749
ag484
asbsg15
I00
sg34
g778
sbsS'hfCoincFilter3'
p786
g0
(g39
g2
Ntp787
Rp788
(dp789
g14
I00
sg43
g0
(g44
g2
Ntp790
Rp791
(dp792
g48
(lp793
g98
ag128
ag231
ag768
ag503
asbsg15
I00
sg34
g786
sbssg405
g379
sS'path185'
p794
g0
(cFWCore.ParameterSet.SequenceTypes
Path
p795
g2
Ntp796
Rp797
(dp798
g14
I00
sg43
g0
(g44
g2
Ntp799
Rp800
(dp801
g48
(lp802
g0
(g126
g2
Ntp803
Rp804
(dp805
g11
(lp806
S'eventSetupPathsKey'
p807
aS'andOr'
p808
aS'HLTPaths'
p809
aS'throw'
p810
aS'TriggerResultsTag'
p811
asg14
I00
sg809
g0
(g19
g20
(lp812
S'HLT_PAFullTracks_Multiplicity185_*'
p813
atp814
Rp815
(dp816
g14
I00
sg32
I01
sg15
I01
sg33
I1
sbsg15
I01
sg16
I57
sg17
g658
sg34
S'hltHM185'
p817
sg807
g0
(g74
g2
Ntp818
Rp819
(dp820
g14
I00
sg32
I01
sg64
g78
sg15
I00
sbsg811
g0
(g108
g2
Ntp821
Rp822
(dp823
g14
I00
sg32
I01
sg15
I00
sg112
S'TriggerResults'
p824
sg115
g78
sg114
g192
sbsg810
g0
(g60
g2
Ntp825
Rp826
(dp827
g14
I00
sg32
I01
sg64
I00
sg15
I00
sbsg35
S'HLTHighLevel'
p828
sg808
g0
(g60
g2
Ntp829
Rp830
(dp831
g14
I00
sg32
I01
sg64
I01
sg15
I00
sbsbag639
ag522
ag0
(g126
g2
Ntp832
Rp833
(dp834
g11
(lp835
S'BinLabel'
p836
aS'selectedBins'
p837
asg14
I00
sg15
I00
sg16
I132
sg17
g658
sg836
g0
(g108
g2
Ntp838
Rp839
(dp840
g14
I00
sg32
I01
sg15
I00
sg112
g282
sg114
g78
sg115
g78
sbsg34
S'ppNoffFilter185'
p841
sg837
g0
(cFWCore.ParameterSet.Types
vint32
p842
g20
(lp843
I185
aI186
aI187
aI188
aI189
aI190
aI191
aI192
aI193
aI194
aI195
aI196
aI197
aI198
aI199
aI200
aI201
aI202
aI203
aI204
aI205
aI206
aI207
aI208
aI209
aI210
aI211
aI212
aI213
aI214
aI215
aI216
aI217
aI218
aI219
aI220
aI221
aI222
aI223
aI224
aI225
aI226
aI227
aI228
aI229
aI230
aI231
aI232
aI233
aI234
aI235
aI236
aI237
aI238
aI239
aI240
aI241
aI242
aI243
aI244
aI245
aI246
aI247
aI248
aI249
atp844
Rp845
(dp846
g14
I00
sg32
I01
sg15
I00
sbsg35
S'CentralityFilter'
p847
sbag537
ag631
ag0
(g171
g2
Ntp848
Rp849
(dp850
g11
(lp851
g294
ag293
aS'srcVz'
p852
aS'srcEta'
p853
aS'srcPhi'
p854
ag297
asg14
I00
sg15
I00
sg16
I162
sg17
g658
sg294
g0
(g117
g2
Ntp855
Rp856
(dp857
g14
I00
sg32
I00
sg64
I0
sg15
I00
sbsg293
g0
(g117
g2
Ntp858
Rp859
(dp860
g14
I00
sg32
I00
sg64
I5000
sg15
I00
sbsg852
g0
(g108
g2
Ntp861
Rp862
(dp863
g14
I00
sg32
I00
sg15
I00
sg112
g305
sg115
S'vz'
p864
sg114
g78
sbsg853
g0
(g108
g2
Ntp865
Rp866
(dp867
g14
I00
sg32
I00
sg15
I00
sg112
g305
sg115
g361
sg114
g78
sbsg854
g0
(g108
g2
Ntp868
Rp869
(dp870
g14
I00
sg32
I00
sg15
I00
sg112
g305
sg115
g306
sg114
g78
sbsg34
S'corr2D185'
p871
sg297
g0
(g66
g2
Ntp872
Rp873
(dp874
g14
I00
sg32
I00
sg64
I5000
sg15
I00
sbsg35
S'CAQW2DAnalyzer'
p875
sbasbsg15
I00
sg34
g794
sbsS'_Process__source'
p876
g0
(cFWCore.ParameterSet.Modules
Source
p877
g2
Ntp878
Rp879
(dp880
g11
(lp881
S'fileNames'
p882
asg14
I00
sg15
I00
sg16
I175
sg17
g18
sg882
g0
(g19
g20
(lp883
S'file:/afs/cern.ch/work/q/qwang/public/00647CA3-B2B3-E611-9F32-02163E01459C.root'
p884
atp885
Rp886
(dp887
g14
I00
sg32
I00
sg15
I00
sg33
I1
sbsg35
S'PoolSource'
p888
sbsS'ppNoffFilter150'
p889
g0
(g126
g2
Ntp890
Rp891
(dp892
g11
(lp893
g836
ag837
asg14
I00
sg15
I00
sg16
I125
sg17
g658
sg836
g0
(g108
g2
Ntp894
Rp895
(dp896
g14
I00
sg32
I01
sg15
I00
sg112
g282
sg114
g78
sg115
g78
sbsg34
g889
sg837
g0
(g842
g20
(lp897
I150
aI151
aI152
aI153
aI154
aI155
aI156
aI157
aI158
aI159
aI160
aI161
aI162
aI163
aI164
aI165
aI166
aI167
aI168
aI169
aI170
aI171
aI172
aI173
aI174
aI175
aI176
aI177
aI178
aI179
aI180
aI181
aI182
aI183
aI184
atp898
Rp899
(dp900
g14
I00
sg32
I01
sg15
I00
sbsg35
g847
sbsg817
g804
sS'corr2D250'
p901
g0
(g171
g2
Ntp902
Rp903
(dp904
g11
(lp905
g294
ag293
ag852
ag853
ag854
ag297
asg14
I00
sg15
I00
sg16
I163
sg17
g658
sg294
g0
(g117
g2
Ntp906
Rp907
(dp908
g14
I00
sg32
I00
sg64
I0
sg15
I00
sbsg293
g0
(g117
g2
Ntp909
Rp910
(dp911
g14
I00
sg32
I00
sg64
I5000
sg15
I00
sbsg852
g0
(g108
g2
Ntp912
Rp913
(dp914
g14
I00
sg32
I00
sg15
I00
sg112
g305
sg115
g864
sg114
g78
sbsg853
g0
(g108
g2
Ntp915
Rp916
(dp917
g14
I00
sg32
I00
sg15
I00
sg112
g305
sg115
g361
sg114
g78
sbsg854
g0
(g108
g2
Ntp918
Rp919
(dp920
g14
I00
sg32
I00
sg15
I00
sg112
g305
sg115
g306
sg114
g78
sbsg34
g901
sg297
g0
(g66
g2
Ntp921
Rp922
(dp923
g14
I00
sg32
I00
sg64
I5000
sg15
I00
sbsg35
g875
sbsS'XMLFromDBSource'
p924
g0
(g7
g2
Ntp925
Rp926
(dp927
g11
(lp928
S'rootDDName'
p929
aS'label'
p930
asg14
I00
sg15
I00
sg16
I40
sg17
g18
sg929
g0
(g74
g2
Ntp931
Rp932
(dp933
g14
I00
sg32
I01
sg64
S'cms:OCMS'
p934
sg15
I00
sbsg930
g0
(g74
g2
Ntp935
Rp936
(dp937
g14
I00
sg32
I01
sg64
S'Extended'
p938
sg15
I00
sbsg34
g924
sg35
S'XMLIdealGeometryESProducer'
p939
sbsg374
g352
sS'corr2D150'
p940
g0
(g171
g2
Ntp941
Rp942
(dp943
g11
(lp944
g294
ag293
ag852
ag853
ag854
ag297
asg14
I00
sg15
I00
sg16
I161
sg17
g658
sg294
g0
(g117
g2
Ntp945
Rp946
(dp947
g14
I00
sg32
I00
sg64
I0
sg15
I00
sbsg293
g0
(g117
g2
Ntp948
Rp949
(dp950
g14
I00
sg32
I00
sg64
I5000
sg15
I00
sbsg852
g0
(g108
g2
Ntp951
Rp952
(dp953
g14
I00
sg32
I00
sg15
I00
sg112
g305
sg115
g864
sg114
g78
sbsg853
g0
(g108
g2
Ntp954
Rp955
(dp956
g14
I00
sg32
I00
sg15
I00
sg112
g305
sg115
g361
sg114
g78
sbsg854
g0
(g108
g2
Ntp957
Rp958
(dp959
g14
I00
sg32
I00
sg15
I00
sg112
g305
sg115
g306
sg114
g78
sbsg34
g940
sg297
g0
(g66
g2
Ntp960
Rp961
(dp962
g14
I00
sg32
I00
sg64
I5000
sg15
I00
sbsg35
g875
sbsg163
g165
sS'TFileService'
p963
g0
(cFWCore.ParameterSet.Modules
Service
p964
g2
Ntp965
Rp966
(dp967
g11
(lp968
S'fileName'
p969
asg14
I00
sg15
I00
sg16
I10
sg17
g18
sg969
g0
(g74
g2
Ntp970
Rp971
(dp972
g14
I00
sg32
I01
sg64
S'outW280.root'
p973
sg15
I00
sbsg35
g963
sbsS'hcalDDDSimConstants'
p974
g0
(g7
g2
Ntp975
Rp976
(dp977
g11
(lp978
S'appendToDataLabel'
p979
asg14
I00
sg979
g0
(g74
g2
Ntp980
Rp981
(dp982
g14
I00
sg32
I01
sg64
g78
sg15
I00
sbsg15
I00
sg16
I40
sg17
g18
sg34
g974
sg35
S'HcalDDDSimConstantsESModule'
p983
sbsS'source'
p984
g879
sS'hltHM120'
p985
g0
(g126
g2
Ntp986
Rp987
(dp988
g11
(lp989
g807
ag808
ag809
ag810
ag811
asg14
I00
sg809
g0
(g19
g20
(lp990
S'HLT_PAFullTracks_Multiplicity120_v*'
p991
atp992
Rp993
(dp994
g14
I00
sg32
I01
sg15
I01
sg33
I1
sbsg15
I01
sg16
I33
sg17
g658
sg34
g985
sg807
g0
(g74
g2
Ntp995
Rp996
(dp997
g14
I00
sg32
I01
sg64
g78
sg15
I00
sbsg811
g0
(g108
g2
Ntp998
Rp999
(dp1000
g14
I00
sg32
I01
sg15
I00
sg112
g824
sg115
g78
sg114
g192
sbsg810
g0
(g60
g2
Ntp1001
Rp1002
(dp1003
g14
I00
sg32
I01
sg64
I00
sg15
I00
sbsg35
g828
sg808
g0
(g60
g2
Ntp1004
Rp1005
(dp1006
g14
I00
sg32
I01
sg64
I01
sg15
I00
sbsbsS'RandomNumberGeneratorService'
p1007
g0
(g964
g2
Ntp1008
Rp1009
(dp1010
g14
I00
sS'horeco'
p1011
g0
(cFWCore.ParameterSet.Types
PSet
p1012
g2
Ntp1013
Rp1014
(dp1015
g14
I00
sg32
I01
sg15
I00
sS'initialSeed'
p1016
g0
(g154
g2
Ntp1017
Rp1018
(dp1019
g14
I00
sg32
I00
sg64
I541321
sg15
I00
sbsg11
(lp1020
g1016
aS'engineName'
p1021
asg1021
g0
(g74
g2
Ntp1022
Rp1023
(dp1024
g14
I00
sg32
I00
sg64
S'TRandom3'
p1025
sg15
I00
sbsbsg16
I10
sS'paramMuons'
p1026
g0
(g1012
g2
Ntp1027
Rp1028
(dp1029
g14
I00
sg32
I01
sg15
I00
sg1016
g0
(g154
g2
Ntp1030
Rp1031
(dp1032
g14
I00
sg32
I00
sg64
I54525
sg15
I00
sbsg11
(lp1033
g1016
ag1021
asg1021
g0
(g74
g2
Ntp1034
Rp1035
(dp1036
g14
I00
sg32
I00
sg64
g1025
sg15
I00
sbsbsS'saveFileName'
p1037
g0
(g74
g2
Ntp1038
Rp1039
(dp1040
g14
I00
sg32
I00
sg64
g78
sg15
I00
sbsS'hbhereco'
p1041
g0
(g1012
g2
Ntp1042
Rp1043
(dp1044
g14
I00
sg32
I01
sg15
I00
sg1016
g0
(g154
g2
Ntp1045
Rp1046
(dp1047
g14
I00
sg32
I00
sg64
I541321
sg15
I00
sbsg11
(lp1048
g1016
ag1021
asg1021
g0
(g74
g2
Ntp1049
Rp1050
(dp1051
g14
I00
sg32
I00
sg64
g1025
sg15
I00
sbsbsS'simSiStripDigiSimLink'
p1052
g0
(g1012
g2
Ntp1053
Rp1054
(dp1055
g14
I00
sg32
I01
sg15
I00
sg1016
g0
(g154
g2
Ntp1056
Rp1057
(dp1058
g14
I00
sg32
I00
sg64
I1234567
sg15
I00
sbsg11
(lp1059
g1016
ag1021
asg1021
g0
(g74
g2
Ntp1060
Rp1061
(dp1062
g14
I00
sg32
I00
sg64
S'HepJamesRandom'
p1063
sg15
I00
sbsbsS'externalLHEProducer'
p1064
g0
(g1012
g2
Ntp1065
Rp1066
(dp1067
g14
I00
sg32
I01
sg15
I00
sg1016
g0
(g154
g2
Ntp1068
Rp1069
(dp1070
g14
I00
sg32
I00
sg64
I234567
sg15
I00
sbsg11
(lp1071
g1016
ag1021
asg1021
g0
(g74
g2
Ntp1072
Rp1073
(dp1074
g14
I00
sg32
I00
sg64
g1063
sg15
I00
sbsbsS'famosPileUp'
p1075
g0
(g1012
g2
Ntp1076
Rp1077
(dp1078
g14
I00
sg32
I01
sg15
I00
sg1016
g0
(g154
g2
Ntp1079
Rp1080
(dp1081
g14
I00
sg32
I00
sg64
I918273
sg15
I00
sbsg11
(lp1082
g1016
ag1021
asg1021
g0
(g74
g2
Ntp1083
Rp1084
(dp1085
g14
I00
sg32
I00
sg64
g1025
sg15
I00
sbsbsS'simMuonDTDigis'
p1086
g0
(g1012
g2
Ntp1087
Rp1088
(dp1089
g14
I00
sg32
I01
sg15
I00
sg1016
g0
(g154
g2
Ntp1090
Rp1091
(dp1092
g14
I00
sg32
I00
sg64
I1234567
sg15
I00
sbsg11
(lp1093
g1016
ag1021
asg1021
g0
(g74
g2
Ntp1094
Rp1095
(dp1096
g14
I00
sg32
I00
sg64
g1063
sg15
I00
sbsbsg35
g1007
sS'siTrackerGaussianSmearingRecHits'
p1097
g0
(g1012
g2
Ntp1098
Rp1099
(dp1100
g14
I00
sg32
I01
sg15
I00
sg1016
g0
(g154
g2
Ntp1101
Rp1102
(dp1103
g14
I00
sg32
I00
sg64
I24680
sg15
I00
sbsg11
(lp1104
g1016
ag1021
asg1021
g0
(g74
g2
Ntp1105
Rp1106
(dp1107
g14
I00
sg32
I00
sg64
g1025
sg15
I00
sbsbsg11
(lp1108
g1011
ag1026
ag1037
ag1041
ag1052
ag1064
ag1075
ag1086
ag1097
aS'ecalPreshowerRecHit'
p1109
aS'generator'
p1110
aS'simMuonRPCDigis'
p1111
aS'hiSignal'
p1112
aS'mixSimCaloHits'
p1113
aS'mix'
p1114
aS'VtxSmeared'
p1115
aS'LHCTransport'
p1116
aS'ecalRecHit'
p1117
aS'hfreco'
p1118
aS'mixRecoTracks'
p1119
aS'hiSignalG4SimHits'
p1120
aS'famosSimHits'
p1121
aS'MuonSimHits'
p1122
aS'g4SimHits'
p1123
aS'hiSignalLHCTransport'
p1124
aS'mixGenPU'
p1125
aS'l1ParamMuons'
p1126
aS'simBeamSpotFilter'
p1127
aS'simMuonCSCDigis'
p1128
aS'mixData'
p1129
asg1109
g0
(g1012
g2
Ntp1130
Rp1131
(dp1132
g14
I00
sg32
I01
sg15
I00
sg1016
g0
(g154
g2
Ntp1133
Rp1134
(dp1135
g14
I00
sg32
I00
sg64
I6541321
sg15
I00
sbsg11
(lp1136
g1016
ag1021
asg1021
g0
(g74
g2
Ntp1137
Rp1138
(dp1139
g14
I00
sg32
I00
sg64
g1025
sg15
I00
sbsbsg1110
g0
(g1012
g2
Ntp1140
Rp1141
(dp1142
g14
I00
sg32
I01
sg15
I00
sg1016
g0
(g154
g2
Ntp1143
Rp1144
(dp1145
g14
I00
sg32
I00
sg64
I123456789
sg15
I00
sbsg11
(lp1146
g1016
ag1021
asg1021
g0
(g74
g2
Ntp1147
Rp1148
(dp1149
g14
I00
sg32
I00
sg64
g1063
sg15
I00
sbsbsg1111
g0
(g1012
g2
Ntp1150
Rp1151
(dp1152
g14
I00
sg32
I01
sg15
I00
sg1016
g0
(g154
g2
Ntp1153
Rp1154
(dp1155
g14
I00
sg32
I00
sg64
I1234567
sg15
I00
sbsg11
(lp1156
g1016
ag1021
asg1021
g0
(g74
g2
Ntp1157
Rp1158
(dp1159
g14
I00
sg32
I00
sg64
g1063
sg15
I00
sbsbsg1112
g0
(g1012
g2
Ntp1160
Rp1161
(dp1162
g14
I00
sg32
I01
sg15
I00
sg1016
g0
(g154
g2
Ntp1163
Rp1164
(dp1165
g14
I00
sg32
I00
sg64
I123456789
sg15
I00
sbsg11
(lp1166
g1016
ag1021
asg1021
g0
(g74
g2
Ntp1167
Rp1168
(dp1169
g14
I00
sg32
I00
sg64
g1063
sg15
I00
sbsbsg1113
g0
(g1012
g2
Ntp1170
Rp1171
(dp1172
g14
I00
sg32
I01
sg15
I00
sg1016
g0
(g154
g2
Ntp1173
Rp1174
(dp1175
g14
I00
sg32
I00
sg64
I918273
sg15
I00
sbsg11
(lp1176
g1016
ag1021
asg1021
g0
(g74
g2
Ntp1177
Rp1178
(dp1179
g14
I00
sg32
I00
sg64
g1025
sg15
I00
sbsbsg1114
g0
(g1012
g2
Ntp1180
Rp1181
(dp1182
g14
I00
sg32
I01
sg15
I00
sg1016
g0
(g154
g2
Ntp1183
Rp1184
(dp1185
g14
I00
sg32
I00
sg64
I12345
sg15
I00
sbsg11
(lp1186
g1016
ag1021
asg1021
g0
(g74
g2
Ntp1187
Rp1188
(dp1189
g14
I00
sg32
I00
sg64
g1063
sg15
I00
sbsbsg1115
g0
(g1012
g2
Ntp1190
Rp1191
(dp1192
g14
I00
sg32
I01
sg15
I00
sg1016
g0
(g154
g2
Ntp1193
Rp1194
(dp1195
g14
I00
sg32
I00
sg64
I98765432
sg15
I00
sbsg11
(lp1196
g1016
ag1021
asg1021
g0
(g74
g2
Ntp1197
Rp1198
(dp1199
g14
I00
sg32
I00
sg64
g1063
sg15
I00
sbsbsg1116
g0
(g1012
g2
Ntp1200
Rp1201
(dp1202
g14
I00
sg32
I01
sg15
I00
sg1016
g0
(g154
g2
Ntp1203
Rp1204
(dp1205
g14
I00
sg32
I00
sg64
I87654321
sg15
I00
sbsg11
(lp1206
g1016
ag1021
asg1021
g0
(g74
g2
Ntp1207
Rp1208
(dp1209
g14
I00
sg32
I00
sg64
g1025
sg15
I00
sbsbsg1117
g0
(g1012
g2
Ntp1210
Rp1211
(dp1212
g14
I00
sg32
I01
sg15
I00
sg1016
g0
(g154
g2
Ntp1213
Rp1214
(dp1215
g14
I00
sg32
I00
sg64
I654321
sg15
I00
sbsg11
(lp1216
g1016
ag1021
asg1021
g0
(g74
g2
Ntp1217
Rp1218
(dp1219
g14
I00
sg32
I00
sg64
g1025
sg15
I00
sbsbsg1129
g0
(g1012
g2
Ntp1220
Rp1221
(dp1222
g14
I00
sg32
I01
sg15
I00
sg1016
g0
(g154
g2
Ntp1223
Rp1224
(dp1225
g14
I00
sg32
I00
sg64
I12345
sg15
I00
sbsg11
(lp1226
g1016
ag1021
asg1021
g0
(g74
g2
Ntp1227
Rp1228
(dp1229
g14
I00
sg32
I00
sg64
g1063
sg15
I00
sbsbsg1119
g0
(g1012
g2
Ntp1230
Rp1231
(dp1232
g14
I00
sg32
I01
sg15
I00
sg1016
g0
(g154
g2
Ntp1233
Rp1234
(dp1235
g14
I00
sg32
I00
sg64
I918273
sg15
I00
sbsg11
(lp1236
g1016
ag1021
asg1021
g0
(g74
g2
Ntp1237
Rp1238
(dp1239
g14
I00
sg32
I00
sg64
g1025
sg15
I00
sbsbsg1120
g0
(g1012
g2
Ntp1240
Rp1241
(dp1242
g14
I00
sg32
I01
sg15
I00
sg1016
g0
(g154
g2
Ntp1243
Rp1244
(dp1245
g14
I00
sg32
I00
sg64
I11
sg15
I00
sbsg11
(lp1246
g1016
ag1021
asg1021
g0
(g74
g2
Ntp1247
Rp1248
(dp1249
g14
I00
sg32
I00
sg64
g1063
sg15
I00
sbsbsg1121
g0
(g1012
g2
Ntp1250
Rp1251
(dp1252
g14
I00
sg32
I01
sg15
I00
sg1016
g0
(g154
g2
Ntp1253
Rp1254
(dp1255
g14
I00
sg32
I00
sg64
I13579
sg15
I00
sbsg11
(lp1256
g1016
ag1021
asg1021
g0
(g74
g2
Ntp1257
Rp1258
(dp1259
g14
I00
sg32
I00
sg64
g1025
sg15
I00
sbsbsg1122
g0
(g1012
g2
Ntp1260
Rp1261
(dp1262
g14
I00
sg32
I01
sg15
I00
sg1016
g0
(g154
g2
Ntp1263
Rp1264
(dp1265
g14
I00
sg32
I00
sg64
I987346
sg15
I00
sbsg11
(lp1266
g1016
ag1021
asg1021
g0
(g74
g2
Ntp1267
Rp1268
(dp1269
g14
I00
sg32
I00
sg64
g1025
sg15
I00
sbsbsg1123
g0
(g1012
g2
Ntp1270
Rp1271
(dp1272
g14
I00
sg32
I01
sg15
I00
sg1016
g0
(g154
g2
Ntp1273
Rp1274
(dp1275
g14
I00
sg32
I00
sg64
I11
sg15
I00
sbsg11
(lp1276
g1016
ag1021
asg1021
g0
(g74
g2
Ntp1277
Rp1278
(dp1279
g14
I00
sg32
I00
sg64
g1063
sg15
I00
sbsbsg1124
g0
(g1012
g2
Ntp1280
Rp1281
(dp1282
g14
I00
sg32
I01
sg15
I00
sg1016
g0
(g154
g2
Ntp1283
Rp1284
(dp1285
g14
I00
sg32
I00
sg64
I88776655
sg15
I00
sbsg11
(lp1286
g1016
ag1021
asg1021
g0
(g74
g2
Ntp1287
Rp1288
(dp1289
g14
I00
sg32
I00
sg64
g1025
sg15
I00
sbsbsg1125
g0
(g1012
g2
Ntp1290
Rp1291
(dp1292
g14
I00
sg32
I01
sg15
I00
sg1016
g0
(g154
g2
Ntp1293
Rp1294
(dp1295
g14
I00
sg32
I00
sg64
I918273
sg15
I00
sbsg11
(lp1296
g1016
ag1021
asg1021
g0
(g74
g2
Ntp1297
Rp1298
(dp1299
g14
I00
sg32
I00
sg64
g1025
sg15
I00
sbsbsg1126
g0
(g1012
g2
Ntp1300
Rp1301
(dp1302
g14
I00
sg32
I01
sg15
I00
sg1016
g0
(g154
g2
Ntp1303
Rp1304
(dp1305
g14
I00
sg32
I00
sg64
I6453209
sg15
I00
sbsg11
(lp1306
g1016
ag1021
asg1021
g0
(g74
g2
Ntp1307
Rp1308
(dp1309
g14
I00
sg32
I00
sg64
g1025
sg15
I00
sbsbsg15
I00
sg1127
g0
(g1012
g2
Ntp1310
Rp1311
(dp1312
g14
I00
sg32
I01
sg15
I00
sg1016
g0
(g154
g2
Ntp1313
Rp1314
(dp1315
g14
I00
sg32
I00
sg64
I87654321
sg15
I00
sbsg11
(lp1316
g1016
ag1021
asg1021
g0
(g74
g2
Ntp1317
Rp1318
(dp1319
g14
I00
sg32
I00
sg64
g1063
sg15
I00
sbsbsg1128
g0
(g1012
g2
Ntp1320
Rp1321
(dp1322
g14
I00
sg32
I01
sg15
I00
sg1016
g0
(g154
g2
Ntp1323
Rp1324
(dp1325
g14
I00
sg32
I00
sg64
I11223344
sg15
I00
sbsg11
(lp1326
g1016
ag1021
asg1021
g0
(g74
g2
Ntp1327
Rp1328
(dp1329
g14
I00
sg32
I00
sg64
g1063
sg15
I00
sbsbsg1118
g0
(g1012
g2
Ntp1330
Rp1331
(dp1332
g14
I00
sg32
I01
sg15
I00
sg1016
g0
(g154
g2
Ntp1333
Rp1334
(dp1335
g14
I00
sg32
I00
sg64
I541321
sg15
I00
sbsg11
(lp1336
g1016
ag1021
asg1021
g0
(g74
g2
Ntp1337
Rp1338
(dp1339
g14
I00
sg32
I00
sg64
g1025
sg15
I00
sbsbsg17
g18
sbsS'CaloTowerGeometryFromDBEP'
p1340
g0
(g7
g2
Ntp1341
Rp1342
(dp1343
g11
(lp1344
S'applyAlignment'
p1345
aS'hcalTopologyConstants'
p1346
asg14
I00
sg15
I01
sg16
I40
sg17
g18
sg1346
g0
(g1012
g2
Ntp1347
Rp1348
(dp1349
g14
I00
sg32
I01
sg15
I00
sS'maxDepthHE'
p1350
g0
(g66
g2
Ntp1351
Rp1352
(dp1353
g14
I00
sg32
I01
sg64
I3
sg15
I00
sbsS'maxDepthHB'
p1354
g0
(g66
g2
Ntp1355
Rp1356
(dp1357
g14
I00
sg32
I01
sg64
I2
sg15
I00
sbsg11
(lp1358
g1350
ag1354
aS'mode'
p1359
asg1359
g0
(g74
g2
Ntp1360
Rp1361
(dp1362
g14
I00
sg32
I01
sg64
S'HcalTopologyMode::LHC'
p1363
sg15
I00
sbsbsg34
g1340
sg1345
g0
(g60
g2
Ntp1364
Rp1365
(dp1366
g14
I00
sg32
I01
sg64
I00
sg15
I00
sbsg35
g1340
sbsg434
g410
sg257
g248
sS'_Process__InExtendCall'
p1367
I00
sS'ppNoffFilter360'
p1368
g0
(g126
g2
Ntp1369
Rp1370
(dp1371
g11
(lp1372
g836
ag837
asg14
I00
sg15
I00
sg16
I146
sg17
g658
sg836
g0
(g108
g2
Ntp1373
Rp1374
(dp1375
g14
I00
sg32
I01
sg15
I00
sg112
g282
sg114
g78
sg115
g78
sbsg34
g1368
sg837
g0
(g842
g20
(lp1376
I330
aI331
aI332
aI333
aI334
aI335
aI336
aI337
aI338
aI339
aI340
aI341
aI342
aI343
aI344
aI345
aI346
aI347
aI348
aI349
aI350
aI351
aI352
aI353
aI354
aI355
aI356
aI357
aI358
aI359
atp1377
Rp1378
(dp1379
g14
I00
sg32
I01
sg15
I00
sbsg35
g847
sbsS'_Process__producers'
p1380
(dp1381
g282
g522
sg305
g537
sS'randomEngineStateProducer'
p1382
g0
(g50
g2
Ntp1383
Rp1384
(dp1385
g11
(lp1386
sg14
I00
sg15
I00
sg16
I170
sg17
S'/cvmfs/cms.cern.ch/slc6_amd64_gcc530/cms/cmssw/CMSSW_8_0_22/python/IOMC/RandomEngine/IOMC_cff.py'
p1387
sg34
g1382
sg35
S'RandomEngineStateProducer'
p1388
sbsg124
g98
sg73
g52
ssg287
g267
sg161
g150
sg482
g476
sS'MuonDetLayerGeometryESProducer'
p1389
g0
(g7
g2
Ntp1390
Rp1391
(dp1392
g11
(lp1393
sg14
I00
sg15
I00
sg16
I40
sg17
g18
sg34
g1389
sg35
g1389
sbsS'EcalEndcapGeometryFromDBEP'
p1394
g0
(g7
g2
Ntp1395
Rp1396
(dp1397
g11
(lp1398
g1345
asg14
I00
sg15
I01
sg16
I40
sg17
g18
sg34
g1394
sg1345
g0
(g60
g2
Ntp1399
Rp1400
(dp1401
g14
I00
sg32
I01
sg64
I01
sg15
I01
sbsg35
g1394
sbsg214
g173
sS'MessageLogger'
p1402
g0
(g964
g2
Ntp1403
Rp1404
(dp1405
g14
I00
sS'suppressInfo'
p1406
g0
(g19
g20
(lp1407
tp1408
Rp1409
(dp1410
g14
I00
sg32
I00
sg15
I00
sg33
I1
sbsS'suppressDebug'
p1411
g0
(g19
g20
(lp1412
tp1413
Rp1414
(dp1415
g14
I00
sg32
I00
sg15
I00
sg33
I1
sbsS'cout'
p1416
g0
(g1012
g2
Ntp1417
Rp1418
(dp1419
g14
I00
sg32
I00
sS'placeholder'
p1420
g0
(g60
g2
Ntp1421
Rp1422
(dp1423
g14
I00
sg32
I00
sg64
I01
sg15
I00
sbsg15
I00
sg11
(lp1424
g1420
asbsg16
I10
sS'debugModules'
p1425
g0
(g19
g20
(lp1426
tp1427
Rp1428
(dp1429
g14
I00
sg32
I00
sg15
I00
sg33
I1
sbsg35
g1402
sS'fwkJobReports'
p1430
g0
(g19
g20
(lp1431
S'FrameworkJobReport'
p1432
atp1433
Rp1434
(dp1435
g14
I00
sg32
I00
sg15
I00
sg33
I1
sbsg11
(lp1436
g1406
aS'debugs'
p1437
ag1411
ag1416
aS'cerr_stats'
p1438
aS'warnings'
p1439
aS'default'
p1440
aS'statistics'
p1441
aS'cerr'
p1442
ag1432
aS'suppressWarning'
p1443
aS'errors'
p1444
aS'destinations'
p1445
ag1425
aS'infos'
p1446
aS'categories'
p1447
ag1430
asg1441
g0
(g19
g20
(lp1448
g1438
atp1449
Rp1450
(dp1451
g14
I00
sg32
I00
sg15
I00
sg33
I1
sbsg17
g18
sg1445
g0
(g19
g20
(lp1452
g1439
ag1444
ag1446
ag1437
ag1416
ag1442
atp1453
Rp1454
(dp1455
g14
I00
sg32
I00
sg15
I00
sg33
I1
sbsg1437
g0
(g1012
g2
Ntp1456
Rp1457
(dp1458
g14
I00
sg32
I00
sg1420
g0
(g60
g2
Ntp1459
Rp1460
(dp1461
g14
I00
sg32
I00
sg64
I01
sg15
I00
sbsg15
I00
sg11
(lp1462
g1420
asbsg1439
g0
(g1012
g2
Ntp1463
Rp1464
(dp1465
g14
I00
sg32
I00
sg1420
g0
(g60
g2
Ntp1466
Rp1467
(dp1468
g14
I00
sg32
I00
sg64
I01
sg15
I00
sbsg15
I00
sg11
(lp1469
g1420
asbsg1444
g0
(g1012
g2
Ntp1470
Rp1471
(dp1472
g14
I00
sg32
I00
sg1420
g0
(g60
g2
Ntp1473
Rp1474
(dp1475
g14
I00
sg32
I00
sg64
I01
sg15
I00
sbsg15
I00
sg11
(lp1476
g1420
asbsg1432
g0
(g1012
g2
Ntp1477
Rp1478
(dp1479
g14
I00
sg32
I00
sg15
I00
sg1440
g0
(g1012
g2
Ntp1480
Rp1481
(dp1482
g14
I00
sg32
I00
sS'limit'
p1483
g0
(g66
g2
Ntp1484
Rp1485
(dp1486
g14
I00
sg32
I00
sg64
I0
sg15
I00
sbsg15
I00
sg11
(lp1487
g1483
asbsS'FwkJob'
p1488
g0
(g1012
g2
Ntp1489
Rp1490
(dp1491
g14
I00
sg32
I00
sg15
I00
sg1483
g0
(g66
g2
Ntp1492
Rp1493
(dp1494
g14
I00
sg32
I00
sg64
I10000000
sg15
I00
sbsg11
(lp1495
S'optionalPSet'
p1496
ag1483
asg1496
g0
(g60
g2
Ntp1497
Rp1498
(dp1499
g14
I00
sg32
I00
sg64
I01
sg15
I00
sbsbsg11
(lp1500
g1440
ag1496
ag1488
asg1496
g0
(g60
g2
Ntp1501
Rp1502
(dp1503
g14
I00
sg32
I00
sg64
I01
sg15
I00
sbsbsg1443
g0
(g19
g20
(lp1504
tp1505
Rp1506
(dp1507
g14
I00
sg32
I00
sg15
I00
sg33
I1
sbsg1446
g0
(g1012
g2
Ntp1508
Rp1509
(dp1510
g14
I00
sg32
I00
sg15
I00
sS'Root_NoDictionary'
p1511
g0
(g1012
g2
Ntp1512
Rp1513
(dp1514
g14
I00
sg32
I00
sg15
I00
sg1483
g0
(g66
g2
Ntp1515
Rp1516
(dp1517
g14
I00
sg32
I00
sg64
I0
sg15
I00
sbsg11
(lp1518
g1496
ag1483
asg1496
g0
(g60
g2
Ntp1519
Rp1520
(dp1521
g14
I00
sg32
I00
sg64
I01
sg15
I00
sbsbsg11
(lp1522
g1496
ag1511
ag1420
asg1496
g0
(g60
g2
Ntp1523
Rp1524
(dp1525
g14
I00
sg32
I00
sg64
I01
sg15
I00
sbsg1420
g0
(g60
g2
Ntp1526
Rp1527
(dp1528
g14
I00
sg32
I00
sg64
I01
sg15
I00
sbsbsg1447
g0
(g19
g20
(lp1529
g1488
aS'FwkReport'
p1530
aS'FwkSummary'
p1531
ag1511
atp1532
Rp1533
(dp1534
g14
I00
sg32
I00
sg15
I00
sg33
I1
sbsg15
I00
sg1438
g0
(g1012
g2
Ntp1535
Rp1536
(dp1537
g14
I00
sg32
I00
sg15
I00
sg1496
g0
(g60
g2
Ntp1538
Rp1539
(dp1540
g14
I00
sg32
I00
sg64
I01
sg15
I00
sbsg11
(lp1541
S'threshold'
p1542
aS'output'
p1543
ag1496
asg1542
g0
(g74
g2
Ntp1544
Rp1545
(dp1546
g14
I00
sg32
I00
sg64
S'WARNING'
p1547
sg15
I00
sbsg1543
g0
(g74
g2
Ntp1548
Rp1549
(dp1550
g14
I00
sg32
I00
sg64
g1442
sg15
I00
sbsbsg1440
g0
(g1012
g2
Ntp1551
Rp1552
(dp1553
g14
I00
sg32
I00
sg15
I00
sg11
(lp1554
sbsg1442
g0
(g1012
g2
Ntp1555
Rp1556
(dp1557
g14
I00
sg32
I00
sS'noTimeStamps'
p1558
g0
(g60
g2
Ntp1559
Rp1560
(dp1561
g14
I00
sg32
I00
sg64
I00
sg15
I00
sbsg1530
g0
(g1012
g2
Ntp1562
Rp1563
(dp1564
g14
I00
sg32
I00
sg15
I01
sS'reportEvery'
p1565
g0
(g66
g2
Ntp1566
Rp1567
(dp1568
g14
I00
sg32
I00
sg64
I100
sg15
I01
sbsg1483
g0
(g66
g2
Ntp1569
Rp1570
(dp1571
g14
I00
sg32
I00
sg64
I10000000
sg15
I00
sbsg11
(lp1572
g1565
ag1496
ag1483
asg1496
g0
(g60
g2
Ntp1573
Rp1574
(dp1575
g14
I00
sg32
I00
sg64
I01
sg15
I00
sbsbsg15
I00
sg1440
g0
(g1012
g2
Ntp1576
Rp1577
(dp1578
g14
I00
sg32
I00
sg1483
g0
(g66
g2
Ntp1579
Rp1580
(dp1581
g14
I00
sg32
I00
sg64
I10000000
sg15
I00
sbsg15
I00
sg11
(lp1582
g1483
asbsg1511
g0
(g1012
g2
Ntp1583
Rp1584
(dp1585
g14
I00
sg32
I00
sg15
I00
sg1483
g0
(g66
g2
Ntp1586
Rp1587
(dp1588
g14
I00
sg32
I00
sg64
I0
sg15
I00
sbsg11
(lp1589
g1496
ag1483
asg1496
g0
(g60
g2
Ntp1590
Rp1591
(dp1592
g14
I00
sg32
I00
sg64
I01
sg15
I00
sbsbsS'INFO'
p1593
g0
(g1012
g2
Ntp1594
Rp1595
(dp1596
g14
I00
sg32
I00
sg1483
g0
(g66
g2
Ntp1597
Rp1598
(dp1599
g14
I00
sg32
I00
sg64
I0
sg15
I00
sbsg15
I00
sg11
(lp1600
g1483
asbsg1496
g0
(g60
g2
Ntp1601
Rp1602
(dp1603
g14
I00
sg32
I00
sg64
I01
sg15
I00
sbsg1488
g0
(g1012
g2
Ntp1604
Rp1605
(dp1606
g14
I00
sg32
I00
sg15
I00
sg1483
g0
(g66
g2
Ntp1607
Rp1608
(dp1609
g14
I00
sg32
I00
sg64
I0
sg15
I00
sbsg11
(lp1610
g1496
ag1483
asg1496
g0
(g60
g2
Ntp1611
Rp1612
(dp1613
g14
I00
sg32
I00
sg64
I01
sg15
I00
sbsbsg1531
g0
(g1012
g2
Ntp1614
Rp1615
(dp1616
g14
I00
sg32
I00
sg15
I00
sg1565
g0
(g66
g2
Ntp1617
Rp1618
(dp1619
g14
I00
sg32
I00
sg64
I1
sg15
I00
sbsg1483
g0
(g66
g2
Ntp1620
Rp1621
(dp1622
g14
I00
sg32
I00
sg64
I10000000
sg15
I00
sbsg11
(lp1623
g1565
ag1496
ag1483
asg1496
g0
(g60
g2
Ntp1624
Rp1625
(dp1626
g14
I00
sg32
I00
sg64
I01
sg15
I00
sbsbsg11
(lp1627
g1593
ag1558
ag1530
ag1440
ag1511
ag1542
ag1488
ag1531
ag1496
asg1542
g0
(g74
g2
Ntp1628
Rp1629
(dp1630
g14
I00
sg32
I00
sg64
g1593
sg15
I00
sbsbsbsS'centralityFilter'
p1631
g0
(g126
g2
Ntp1632
Rp1633
(dp1634
g11
(lp1635
g836
ag837
asg14
I00
sg15
I00
sg16
I5
sg17
S'/afs/cern.ch/work/c/cavalosb/rA/CMSSW_8_0_22/python/RecoHI/HiCentralityAlgos/CentralityFilter_cfi.py'
p1636
sg836
g0
(g108
g2
Ntp1637
Rp1638
(dp1639
g14
I00
sg32
I01
sg15
I00
sg112
S'centralityBin'
p1640
sg114
g78
sg115
S'HFtowers'
p1641
sbsg34
g1631
sg837
g0
(g842
g20
(lp1642
I0
atp1643
Rp1644
(dp1645
g14
I00
sg32
I01
sg15
I00
sbsg35
g847
sbsg347
g325
sg124
g98
sg662
g646
sS'_Process__services'
p1646
(dp1647
g1402
g1404
sS'DQMStore'
p1648
g0
(g964
g2
Ntp1649
Rp1650
(dp1651
g11
(lp1652
sg14
I00
sg15
I00
sg16
I10
sg17
g18
sg35
g1648
sbsg1007
g1009
sg963
g966
ssg1648
g1650
sS'path120'
p1653
g0
(g795
g2
Ntp1654
Rp1655
(dp1656
g14
I00
sg43
g0
(g44
g2
Ntp1657
Rp1658
(dp1659
g48
(lp1660
g987
ag639
ag522
ag0
(g126
g2
Ntp1661
Rp1662
(dp1663
g11
(lp1664
g836
ag837
asg14
I00
sg15
I00
sg16
I118
sg17
g658
sg836
g0
(g108
g2
Ntp1665
Rp1666
(dp1667
g14
I00
sg32
I01
sg15
I00
sg112
g282
sg114
g78
sg115
g78
sbsg34
S'ppNoffFilter120'
p1668
sg837
g0
(g842
g20
(lp1669
I120
aI121
aI122
aI123
aI124
aI125
aI126
aI127
aI128
aI129
aI130
aI131
aI132
aI133
aI134
aI135
aI136
aI137
aI138
aI139
aI140
aI141
aI142
aI143
aI144
aI145
aI146
aI147
aI148
aI149
atp1670
Rp1671
(dp1672
g14
I00
sg32
I01
sg15
I00
sbsg35
g847
sbag537
ag631
ag0
(g171
g2
Ntp1673
Rp1674
(dp1675
g11
(lp1676
g294
ag293
ag852
ag853
ag854
ag297
asg14
I00
sg15
I00
sg16
I158
sg17
g658
sg294
g0
(g117
g2
Ntp1677
Rp1678
(dp1679
g14
I00
sg32
I00
sg64
I0
sg15
I00
sbsg293
g0
(g117
g2
Ntp1680
Rp1681
(dp1682
g14
I00
sg32
I00
sg64
I5000
sg15
I00
sbsg852
g0
(g108
g2
Ntp1683
Rp1684
(dp1685
g14
I00
sg32
I00
sg15
I00
sg112
g305
sg114
g78
sg115
g864
sbsg853
g0
(g108
g2
Ntp1686
Rp1687
(dp1688
g14
I00
sg32
I00
sg15
I00
sg112
g305
sg114
g78
sg115
g361
sbsg854
g0
(g108
g2
Ntp1689
Rp1690
(dp1691
g14
I00
sg32
I00
sg15
I00
sg112
g305
sg114
g78
sg115
g306
sbsg34
S'corr2D120'
p1692
sg297
g0
(g66
g2
Ntp1693
Rp1694
(dp1695
g14
I00
sg32
I00
sg64
I5000
sg15
I00
sbsg35
g875
sbasbsg15
I00
sg34
g1653
sbsS'CastorGeometryFromDBEP'
p1696
g0
(g7
g2
Ntp1697
Rp1698
(dp1699
g11
(lp1700
g1345
asg14
I00
sg15
I00
sg16
I40
sg17
g18
sg34
g1696
sg1345
g0
(g60
g2
Ntp1701
Rp1702
(dp1703
g14
I00
sg32
I01
sg64
I00
sg15
I00
sbsg35
g1696
sbsg38
g41
sg82
g84
sS'eegeom'
p1704
g0
(cFWCore.ParameterSet.Modules
ESSource
p1705
g2
Ntp1706
Rp1707
(dp1708
g11
(lp1709
S'iovIsRunNotTime'
p1710
aS'recordName'
p1711
aS'firstValid'
p1712
asg14
I00
sg15
I00
sg16
I6
sg1711
g0
(g74
g2
Ntp1713
Rp1714
(dp1715
g14
I00
sg32
I01
sg64
S'EcalMappingRcd'
p1716
sg15
I00
sbsg17
S'/cvmfs/cms.cern.ch/slc6_amd64_gcc530/cms/cmssw/CMSSW_8_0_22/python/Geometry/EcalMapping/EcalMappingRecord_cfi.py'
p1717
sg1712
g0
(cFWCore.ParameterSet.Types
vuint32
p1718
g20
(lp1719
I1
atp1720
Rp1721
(dp1722
g14
I00
sg32
I01
sg15
I00
sbsg34
g1704
sg1710
g0
(g60
g2
Ntp1723
Rp1724
(dp1725
g14
I00
sg32
I01
sg64
I01
sg15
I00
sbsg35
S'EmptyESSource'
p1726
sbsg467
g469
sg494
g496
sg583
g585
sg602
g604
sS'_Process__vpsets'
p1727
(dp1728
sg621
g623
sS'EcalTrigTowerConstituentsMapBuilder'
p1729
g0
(g7
g2
Ntp1730
Rp1731
(dp1732
g11
(lp1733
S'MapFile'
p1734
asg14
I00
sg15
I00
sg1734
g0
(g74
g2
Ntp1735
Rp1736
(dp1737
g14
I00
sg32
I00
sg64
S'Geometry/EcalMapping/data/EndCap_TTMap.txt'
p1738
sg15
I00
sbsg17
g18
sg16
I40
sg34
g1729
sg35
g1729
sbsg871
g849
sg841
g833
sS'schedule'
p1739
g0
(cFWCore.ParameterSet.SequenceTypes
Schedule
p1740
g20
(lp1741
g1655
ag0
(g795
g2
Ntp1742
Rp1743
(dp1744
g14
I00
sg43
g0
(g44
g2
Ntp1745
Rp1746
(dp1747
g48
(lp1748
g0
(g126
g2
Ntp1749
Rp1750
(dp1751
g11
(lp1752
g807
ag808
ag809
ag810
ag811
asg14
I00
sg809
g0
(g19
g20
(lp1753
g991
aS'HLT_PAFullTracks_Multiplicity150_v*'
p1754
atp1755
Rp1756
(dp1757
g14
I00
sg32
I01
sg15
I01
sg33
I1
sbsg15
I01
sg16
I45
sg17
g658
sg34
S'hltHM150'
p1758
sg807
g0
(g74
g2
Ntp1759
Rp1760
(dp1761
g14
I00
sg32
I01
sg64
g78
sg15
I00
sbsg811
g0
(g108
g2
Ntp1762
Rp1763
(dp1764
g14
I00
sg32
I01
sg15
I00
sg112
g824
sg115
g78
sg114
g192
sbsg810
g0
(g60
g2
Ntp1765
Rp1766
(dp1767
g14
I00
sg32
I01
sg64
I00
sg15
I00
sbsg35
g828
sg808
g0
(g60
g2
Ntp1768
Rp1769
(dp1770
g14
I00
sg32
I01
sg64
I01
sg15
I00
sbsbag639
ag522
ag891
ag537
ag631
ag942
asbsg15
I00
sg34
S'path150'
p1771
sbag797
ag0
(g795
g2
Ntp1772
Rp1773
(dp1774
g14
I00
sg43
g0
(g44
g2
Ntp1775
Rp1776
(dp1777
g48
(lp1778
g0
(g126
g2
Ntp1779
Rp1780
(dp1781
g11
(lp1782
g807
ag808
ag809
ag810
ag811
asg14
I00
sg809
g0
(g19
g20
(lp1783
S'HLT_PAFullTracks_Multiplicity250*_v*'
p1784
atp1785
Rp1786
(dp1787
g14
I00
sg32
I01
sg15
I01
sg33
I1
sbsg15
I01
sg16
I69
sg17
g658
sg34
S'hltHM250'
p1788
sg807
g0
(g74
g2
Ntp1789
Rp1790
(dp1791
g14
I00
sg32
I01
sg64
g78
sg15
I00
sbsg811
g0
(g108
g2
Ntp1792
Rp1793
(dp1794
g14
I00
sg32
I01
sg15
I00
sg112
g824
sg115
g78
sg114
g192
sbsg810
g0
(g60
g2
Ntp1795
Rp1796
(dp1797
g14
I00
sg32
I01
sg64
I00
sg15
I00
sbsg35
g828
sg808
g0
(g60
g2
Ntp1798
Rp1799
(dp1800
g14
I00
sg32
I01
sg64
I01
sg15
I00
sbsbag639
ag522
ag0
(g126
g2
Ntp1801
Rp1802
(dp1803
g11
(lp1804
g836
ag837
asg14
I00
sg15
I00
sg16
I139
sg17
g658
sg836
g0
(g108
g2
Ntp1805
Rp1806
(dp1807
g14
I00
sg32
I01
sg15
I00
sg112
g282
sg114
g78
sg115
g78
sbsg34
S'ppNoffFilter250'
p1808
sg837
g0
(g842
g20
(lp1809
I250
aI251
aI252
aI253
aI254
aI255
aI256
aI257
aI258
aI259
aI260
aI261
aI262
aI263
aI264
aI265
aI266
aI267
aI268
aI269
aI270
aI271
aI272
aI273
aI274
aI275
aI276
aI277
aI278
aI279
aI280
aI281
aI282
aI283
aI284
aI285
aI286
aI287
aI288
aI289
aI290
aI291
aI292
aI293
aI294
aI295
aI296
aI297
aI298
aI299
aI300
aI301
aI302
aI303
aI304
aI305
aI306
aI307
aI308
aI309
aI310
aI311
aI312
aI313
aI314
aI315
aI316
aI317
aI318
aI319
aI320
aI321
aI322
aI323
aI324
aI325
aI326
aI327
aI328
aI329
aI330
aI331
aI332
aI333
aI334
aI335
aI336
aI337
aI338
aI339
aI340
aI341
aI342
aI343
aI344
aI345
aI346
aI347
aI348
aI349
aI350
aI351
aI352
aI353
aI354
aI355
aI356
aI357
aI358
aI359
aI360
aI361
aI362
aI363
aI364
aI365
aI366
aI367
aI368
aI369
aI370
aI371
aI372
aI373
aI374
aI375
aI376
aI377
aI378
aI379
aI380
aI381
aI382
aI383
aI384
aI385
aI386
aI387
aI388
aI389
aI390
aI391
aI392
aI393
aI394
aI395
aI396
aI397
aI398
aI399
aI400
aI401
aI402
aI403
aI404
aI405
aI406
aI407
aI408
aI409
aI410
aI411
aI412
aI413
aI414
aI415
aI416
aI417
aI418
aI419
aI420
aI421
aI422
aI423
aI424
aI425
aI426
aI427
aI428
aI429
aI430
aI431
aI432
aI433
aI434
aI435
aI436
aI437
aI438
aI439
aI440
aI441
aI442
aI443
aI444
aI445
aI446
aI447
aI448
aI449
aI450
aI451
aI452
aI453
aI454
aI455
aI456
aI457
aI458
aI459
aI460
aI461
aI462
aI463
aI464
aI465
aI466
aI467
aI468
aI469
aI470
aI471
aI472
aI473
aI474
aI475
aI476
aI477
aI478
aI479
aI480
aI481
aI482
aI483
aI484
aI485
aI486
aI487
aI488
aI489
aI490
aI491
aI492
aI493
aI494
aI495
aI496
aI497
aI498
aI499
aI500
aI501
aI502
aI503
aI504
aI505
aI506
aI507
aI508
aI509
aI510
aI511
aI512
aI513
aI514
aI515
aI516
aI517
aI518
aI519
aI520
aI521
aI522
aI523
aI524
aI525
aI526
aI527
aI528
aI529
aI530
aI531
aI532
aI533
aI534
aI535
aI536
aI537
aI538
aI539
aI540
aI541
aI542
aI543
aI544
aI545
aI546
aI547
aI548
aI549
aI550
aI551
aI552
aI553
aI554
aI555
aI556
aI557
aI558
aI559
aI560
aI561
aI562
aI563
aI564
aI565
aI566
aI567
aI568
aI569
aI570
aI571
aI572
aI573
aI574
aI575
aI576
aI577
aI578
aI579
aI580
aI581
aI582
aI583
aI584
aI585
aI586
aI587
aI588
aI589
aI590
aI591
aI592
aI593
aI594
aI595
aI596
aI597
aI598
aI599
atp1810
Rp1811
(dp1812
g14
I00
sg32
I01
sg15
I00
sbsg35
g847
sbag537
ag631
ag903
asbsg15
I00
sg34
S'path250'
p1813
sbag0
(g795
g2
Ntp1814
Rp1815
(dp1816
g14
I00
sg43
g0
(g44
g2
Ntp1817
Rp1818
(dp1819
g48
(lp1820
g1780
ag639
ag522
ag1370
ag537
ag631
ag0
(g171
g2
Ntp1821
Rp1822
(dp1823
g11
(lp1824
g294
ag293
ag852
ag853
ag854
ag297
asg14
I00
sg15
I00
sg16
I164
sg17
g658
sg294
g0
(g117
g2
Ntp1825
Rp1826
(dp1827
g14
I00
sg32
I00
sg64
I0
sg15
I00
sbsg293
g0
(g117
g2
Ntp1828
Rp1829
(dp1830
g14
I00
sg32
I00
sg64
I5000
sg15
I00
sbsg852
g0
(g108
g2
Ntp1831
Rp1832
(dp1833
g14
I00
sg32
I00
sg15
I00
sg112
g305
sg115
g864
sg114
g78
sbsg853
g0
(g108
g2
Ntp1834
Rp1835
(dp1836
g14
I00
sg32
I00
sg15
I00
sg112
g305
sg115
g361
sg114
g78
sbsg854
g0
(g108
g2
Ntp1837
Rp1838
(dp1839
g14
I00
sg32
I00
sg15
I00
sg112
g305
sg115
g306
sg114
g78
sbsg34
S'corr2D360'
p1840
sg297
g0
(g66
g2
Ntp1841
Rp1842
(dp1843
g14
I00
sg32
I00
sg64
I5000
sg15
I00
sbsg35
g875
sbasbsg15
I00
sg34
S'path360'
p1844
sbatp1845
Rp1846
(dp1847
g14
I00
sg32
I01
sg15
I00
sbsS'_Process__esprefers'
p1848
(dp1849
sS'_Process__isStrict'
p1850
I00
sg1844
g1815
sS'HepPDTESSource'
p1851
g0
(g1705
g2
Ntp1852
Rp1853
(dp1854
g11
(lp1855
S'pdtFileName'
p1856
asg14
I00
sg1856
g0
(cFWCore.ParameterSet.Types
FileInPath
p1857
g2
Ntp1858
Rp1859
(dp1860
g14
I00
sg32
I01
sg64
S'SimGeneral/HepPDTESSource/data/pythiaparticle.tbl'
p1861
sg15
I00
sbsg15
I00
sg16
I4
sg17
S'/cvmfs/cms.cern.ch/slc6_amd64_gcc530/cms/cmssw/CMSSW_8_0_22/python/SimGeneral/HepPDTESSource/pythiapdt_cfi.py'
p1862
sg34
g1851
sg35
g1851
sbsS'_Process__outputmodules'
p1863
(dp1864
sS'_Process__analyzers'
p1865
(dp1866
g1692
g1674
sg347
g325
sg374
g352
sg405
g379
sg287
g267
sg940
g942
sg319
g290
sg871
g849
sg434
g410
sg901
g903
sg463
g439
sg214
g173
sg1840
g1822
ssg637
g639
sS'hltHM280'
p1867
g0
(g126
g2
Ntp1868
Rp1869
(dp1870
g11
(lp1871
g807
ag808
ag809
ag810
ag811
asg14
I00
sg809
g0
(g19
g20
(lp1872
g1784
atp1873
Rp1874
(dp1875
g14
I00
sg32
I01
sg15
I01
sg33
I1
sbsg15
I01
sg16
I82
sg17
g658
sg34
g1867
sg807
g0
(g74
g2
Ntp1876
Rp1877
(dp1878
g14
I00
sg32
I01
sg64
g78
sg15
I00
sbsg811
g0
(g108
g2
Ntp1879
Rp1880
(dp1881
g14
I00
sg32
I01
sg15
I00
sg112
g824
sg115
g78
sg114
g192
sbsg810
g0
(g60
g2
Ntp1882
Rp1883
(dp1884
g14
I00
sg32
I01
sg64
I00
sg15
I00
sbsg35
g828
sg808
g0
(g60
g2
Ntp1885
Rp1886
(dp1887
g14
I00
sg32
I01
sg64
I01
sg15
I00
sbsbsS'idealForDigiTrackerGeometry'
p1888
g0
(g7
g2
Ntp1889
Rp1890
(dp1891
g11
(lp1892
g979
aS'fromDDD'
p1893
ag1345
aS'alignmentsLabel'
p1894
asg14
I00
sg979
g0
(g74
g2
Ntp1895
Rp1896
(dp1897
g14
I00
sg32
I01
sg64
S'idealForDigi'
p1898
sg15
I01
sbsg15
I01
sg1894
g0
(g74
g2
Ntp1899
Rp1900
(dp1901
g14
I00
sg32
I01
sg64
S'fakeForIdeal'
p1902
sg15
I01
sbsg17
S'/cvmfs/cms.cern.ch/slc6_amd64_gcc530/cms/cmssw/CMSSW_8_0_22/python/Geometry/TrackerGeometryBuilder/idealForDigiTrackerGeometryDB_cff.py'
p1903
sg16
I8
sg34
g1888
sg1893
g0
(g60
g2
Ntp1904
Rp1905
(dp1906
g14
I00
sg32
I01
sg64
I00
sg15
I00
sbsg1345
g0
(g60
g2
Ntp1907
Rp1908
(dp1909
g14
I00
sg32
I01
sg64
I00
sg15
I01
sbsg35
S'TrackerDigiGeometryESModule'
p1910
sbsg1692
g1674
sg1808
g1802
sg148
g91
sS'_Process__looper'
p1911
NsS'_Process__paths'
p1912
g0
(cFWCore.ParameterSet.DictTypes
SortedKeysDict
p1913
c__builtin__
dict
p1914
(dp1915
g1844
g1815
sg1771
g1743
sg1653
g1655
sg794
g797
sg1813
g1773
stp1916
Rp1917
(dp1918
S'list'
p1919
(lp1920
g1653
ag1771
ag794
ag1813
ag1844
asbsS'MuonNumberingInitialization'
p1921
g0
(g7
g2
Ntp1922
Rp1923
(dp1924
g11
(lp1925
sg14
I00
sg15
I00
sg16
I40
sg17
g18
sg34
g1921
sg35
g1921
sbsg786
g788
sS'options'
p1926
g0
(g1012
g2
Ntp1927
Rp1928
(dp1929
g14
I00
sg32
I00
sg15
I00
sS'Rethrow'
p1930
g0
(g19
g20
(lp1931
S'ProductNotFound'
p1932
atp1933
Rp1934
(dp1935
g14
I00
sg32
I00
sg15
I00
sg33
I1
sbsg11
(lp1936
g1930
asg34
g1926
sbsS'_Process__schedule'
p1937
g1846
sg143
g128
sS'DTGeometryESModule'
p1938
g0
(g7
g2
Ntp1939
Rp1940
(dp1941
g11
(lp1942
g979
ag1893
ag1345
ag1894
asg14
I00
sg979
g0
(g74
g2
Ntp1943
Rp1944
(dp1945
g14
I00
sg32
I01
sg64
g78
sg15
I00
sbsg15
I00
sg1894
g0
(g74
g2
Ntp1946
Rp1947
(dp1948
g14
I00
sg32
I01
sg64
g78
sg15
I00
sbsg17
g18
sg16
I40
sg34
g1938
sg1893
g0
(g60
g2
Ntp1949
Rp1950
(dp1951
g14
I00
sg32
I01
sg64
I00
sg15
I00
sbsg1345
g0
(g60
g2
Ntp1952
Rp1953
(dp1954
g14
I00
sg32
I01
sg64
I01
sg15
I00
sbsg35
g1938
sbsS'VolumeBasedMagneticFieldESProducer'
p1955
g0
(g7
g2
Ntp1956
Rp1957
(dp1958
g11
(lp1959
S'valueOverride'
p1960
aS'debugBuilder'
p1961
ag930
asg14
I00
sg1960
g0
(g66
g2
Ntp1962
Rp1963
(dp1964
g14
I00
sg32
I01
sg64
I18268
sg15
I01
sbsg16
I40
sg17
g18
sg930
g0
(g74
g2
Ntp1965
Rp1966
(dp1967
g14
I00
sg32
I00
sg64
g78
sg15
I00
sbsg1961
g0
(g60
g2
Ntp1968
Rp1969
(dp1970
g14
I00
sg32
I00
sg64
I00
sg15
I00
sbsg34
g1955
sg35
S'VolumeBasedMagneticFieldESProducerFromDB'
p1971
sg15
I01
sbsg243
g231
sS'CaloTopologyBuilder'
p1972
g0
(g7
g2
Ntp1973
Rp1974
(dp1975
g11
(lp1976
sg14
I00
sg15
I00
sg16
I40
sg17
g18
sg34
g1972
sg35
g1972
sbsg282
g522
sg1771
g1743
sg1840
g1822
sS'_Process__psets'
p1977
(dp1978
S'maxEvents'
p1979
g0
(g1012
g2
Ntp1980
Rp1981
(dp1982
g14
I00
sg32
I00
sg15
I00
sg11
(lp1983
S'input'
p1984
asg34
g1979
sg1984
g0
(g66
g2
Ntp1985
Rp1986
(dp1987
g14
I00
sg32
I00
sg64
I-1
sg15
I00
sbsbsg1926
g1928
ssg258
g260
sS'_Process__essources'
p1988
(dp1989
g1851
g1853
sg1704
g1707
ssg888
g879
sg1382
g1384
sg629
g631
sg1979
g1981
sS'CSCGeometryESModule'
p1990
g0
(g7
g2
Ntp1991
Rp1992
(dp1993
g11
(lp1994
g979
aS'useDDD'
p1995
aS'debugV'
p1996
aS'useGangedStripsInME1a'
p1997
ag1894
aS'useOnlyWiresInME1a'
p1998
aS'useRealWireGeometry'
p1999
aS'useCentreTIOffsets'
p2000
ag1345
asg14
I00
sg979
g0
(g74
g2
Ntp2001
Rp2002
(dp2003
g14
I00
sg32
I01
sg64
g78
sg15
I00
sbsg15
I00
sg1996
g0
(g60
g2
Ntp2004
Rp2005
(dp2006
g14
I00
sg32
I00
sg64
I00
sg15
I00
sbsg17
g18
sg1997
g0
(g60
g2
Ntp2007
Rp2008
(dp2009
g14
I00
sg32
I01
sg64
I01
sg15
I00
sbsg1894
g0
(g74
g2
Ntp2010
Rp2011
(dp2012
g14
I00
sg32
I01
sg64
g78
sg15
I00
sbsg1998
g0
(g60
g2
Ntp2013
Rp2014
(dp2015
g14
I00
sg32
I01
sg64
I00
sg15
I00
sbsg1995
g0
(g60
g2
Ntp2016
Rp2017
(dp2018
g14
I00
sg32
I01
sg64
I00
sg15
I00
sbsg16
I40
sg2000
g0
(g60
g2
Ntp2019
Rp2020
(dp2021
g14
I00
sg32
I01
sg64
I00
sg15
I00
sbsg34
g1990
sg1999
g0
(g60
g2
Ntp2022
Rp2023
(dp2024
g14
I00
sg32
I01
sg64
I01
sg15
I00
sbsg1345
g0
(g60
g2
Ntp2025
Rp2026
(dp2027
g14
I00
sg32
I01
sg64
I01
sg15
I00
sbsg35
g1990
sbsS'EcalBarrelGeometryFromDBEP'
p2028
g0
(g7
g2
Ntp2029
Rp2030
(dp2031
g11
(lp2032
g1345
asg14
I00
sg15
I01
sg16
I40
sg17
g18
sg34
g2028
sg1345
g0
(g60
g2
Ntp2033
Rp2034
(dp2035
g14
I00
sg32
I01
sg64
I01
sg15
I01
sbsg35
g2028
sbsS'trackerNumberingGeometryDB'
p2036
g0
(g7
g2
Ntp2037
Rp2038
(dp2039
g11
(lp2040
g979
ag1893
asg14
I00
sg979
g0
(g74
g2
Ntp2041
Rp2042
(dp2043
g14
I00
sg32
I01
sg64
g78
sg15
I00
sbsg15
I00
sg16
I40
sg17
g18
sg34
g2036
sg1893
g0
(g60
g2
Ntp2044
Rp2045
(dp2046
g14
I00
sg32
I01
sg64
I00
sg15
I00
sbsg35
S'TrackerGeometricDetESModule'
p2047
sbsS'_Process__name'
p2048
S'PCA'
p2049
sg319
g290
sS'_Process__endpaths'
p2050
g0
(g1913
g1914
(dp2051
tp2052
Rp2053
(dp2054
g1919
(lp2055
sbsS'_cloneToObjectDict'
p2056
(dp2057
I140068435075984
g410
sI140068435358672
g1957
sI140068435534992
g84
sI140068435113168
g797
sI140068435788816
g0
(g7
g2
Ntp2058
Rp2059
(dp2060
g11
(lp2061
g1345
ag1346
asg14
I00
sg15
I01
sg16
I40
sg17
g18
sg1346
g0
(g1012
g2
Ntp2062
Rp2063
(dp2064
g14
I00
sg32
I01
sg15
I00
sg1350
g0
(g66
g2
Ntp2065
Rp2066
(dp2067
g14
I00
sg32
I01
sg64
I3
sg15
I00
sbsg1354
g0
(g66
g2
Ntp2068
Rp2069
(dp2070
g14
I00
sg32
I01
sg64
I2
sg15
I00
sbsg11
(lp2071
g1350
ag1354
ag1359
asg1359
g0
(g74
g2
Ntp2072
Rp2073
(dp2074
g14
I00
sg32
I01
sg64
g1363
sg15
I00
sbsbsg34
S'HcalGeometryFromDBEP'
p2075
sg1345
g0
(g60
g2
Ntp2076
Rp2077
(dp2078
g14
I00
sg32
I01
sg64
I01
sg15
I01
sbsg35
g2075
sbsI140068435359184
g0
(g7
g2
Ntp2079
Rp2080
(dp2081
g11
(lp2082
S'version'
p2083
ag1960
ag930
asg14
I00
sg15
I01
sg16
I40
sg17
g18
sg930
g0
(g74
g2
Ntp2084
Rp2085
(dp2086
g14
I00
sg32
I00
sg64
S'ParabolicMf'
p2087
sg15
I01
sbsg2083
g0
(g74
g2
Ntp2088
Rp2089
(dp2090
g14
I00
sg32
I01
sg64
S'Parabolic'
p2091
sg15
I00
sbsg1960
g0
(g66
g2
Ntp2092
Rp2093
(dp2094
g14
I00
sg32
I01
sg64
I18268
sg15
I01
sbsg34
S'ParabolicParametrizedMagneticFieldProducer'
p2095
sg35
S'AutoParametrizedMagneticFieldProducer'
p2096
sbsI140068435789328
g0
(g7
g2
Ntp2097
Rp2098
(dp2099
g11
(lp2100
sg14
I00
sg15
I00
sg16
I40
sg17
g18
sg34
S'HcalAlignmentEP'
p2101
sg35
g2101
sbsI140068435760720
g1940
sI140068435564368
g522
sI140068435789840
g1342
sI140068435536016
g780
sI140068435076560
g379
sI140068435078224
g942
sI140068435790352
g0
(g7
g2
Ntp2102
Rp2103
(dp2104
g11
(lp2105
S'Exclude'
p2106
ag979
asg14
I00
sg979
g0
(g74
g2
Ntp2107
Rp2108
(dp2109
g14
I00
sg32
I01
sg64
g78
sg15
I00
sbsg15
I00
sg16
I40
sg17
g18
sg34
S'hcalTopologyIdeal'
p2110
sg2106
g0
(g74
g2
Ntp2111
Rp2112
(dp2113
g14
I00
sg32
I00
sg64
g78
sg15
I00
sbsg35
S'HcalTopologyIdealEP'
p2114
sbsI140068435761744
g0
(g7
g2
Ntp2115
Rp2116
(dp2117
g11
(lp2118
sg14
I00
sg15
I00
sg16
I40
sg17
g18
sg34
S'GlobalTrackingGeometryESProducer'
p2119
sg35
g2119
sbsI140068435077776
g260
sI140068435565392
g515
sI140068435536784
g788
sI140068435078288
g849
sI140068435829328
g1707
sI140068435361232
g165
sI140068435791376
g1698
sI140068435077648
g631
sI140068435537552
g688
sI140068435361104
g173
sI140068435361488
g1928
sI140068435535120
g623
sI140068435533904
g128
sI140068435787984
g1396
sI140068435829072
g0
(g7
g2
Ntp2120
Rp2121
(dp2122
g11
(lp2123
sg14
I00
sg15
I00
sg16
I40
sg17
g18
sg34
S'EcalElectronicsMappingBuilder'
p2124
sg35
g2124
sbsI140068435358096
g1923
sI140068435788240
g2030
sI140068435563856
g833
sI140068435419728
g987
sI140068435534672
g150
sI140068435112912
g1655
sI140068435829840
g976
sI140068435485840
g804
sI140068435830352
g1890
sI140068435564112
g1370
sI140068435564560
g537
sI140068435536208
g503
sI140068435360144
g41
sI140068435790544
g0
(g7
g2
Ntp2125
Rp2126
(dp2127
g11
(lp2128
sg14
I00
sg15
I00
sg16
I40
sg17
g18
sg34
S'CaloTowerTopologyEP'
p2129
sg35
g2129
sbsI140068435761936
g0
(g7
g2
Ntp2130
Rp2131
(dp2132
g11
(lp2133
g979
asg14
I00
sg979
g0
(g74
g2
Ntp2134
Rp2135
(dp2136
g14
I00
sg32
I01
sg64
g78
sg15
I00
sbsg15
I00
sg16
I40
sg17
g18
sg34
S'trackerTopology'
p2137
sg35
S'TrackerTopologyEP'
p2138
sbsI140068435749712
g1992
sI140068435536976
g592
sI140068435791056
g0
(g7
g2
Ntp2139
Rp2140
(dp2141
g11
(lp2142
g1345
asg14
I00
sg15
I00
sg16
I40
sg17
g18
sg34
S'ZdcGeometryFromDBEP'
p2143
sg1345
g0
(g60
g2
Ntp2144
Rp2145
(dp2146
g14
I00
sg32
I01
sg64
I00
sg15
I00
sbsg35
g2143
sbsI140068435563728
g891
sI140068435113424
g1815
sI140068436512208
g1853
sI140068435078736
g903
sI140068435762960
g9
sI140068435537744
g611
sI140068435359696
g52
sI140068435762512
g1974
sI140068435112016
g1822
sI140068435075344
g352
sI140068435562960
g707
sI140068435534352
g476
sI140068435075856
g439
sI140068435563472
g1633
sI140068435534864
g248
sI140068435113040
g1743
sI140068435537168
g726
sI140068435563984
g1802
sI140068435535376
g749
sI140068435486480
g1869
sI140068435761104
g2038
sI140068435535888
g469
sI140068435564752
g1674
sI140068435831056
g0
(g7
g2
Ntp2147
Rp2148
(dp2149
g11
(lp2150
g979
asg14
I00
sg979
g0
(g74
g2
Ntp2151
Rp2152
(dp2153
g14
I00
sg32
I01
sg64
g1902
sg15
I01
sbsg15
I01
sg16
I5
sg17
S'/cvmfs/cms.cern.ch/slc6_amd64_gcc530/cms/cmssw/CMSSW_8_0_22/python/Alignment/CommonAlignmentProducer/fakeForIdealAlignmentProducer_cfi.py'
p2154
sg34
S'fakeForIdealAlignment'
p2155
sg35
S'FakeAlignmentProducer'
p2156
sbsI140068435536400
g761
sI140068435831312
g0
(g7
g2
Ntp2157
Rp2158
(dp2159
g11
(lp2160
g979
ag1995
ag1996
ag1997
ag1894
ag1998
ag1999
ag2000
ag1345
asg14
I00
sg979
g0
(g74
g2
Ntp2161
Rp2162
(dp2163
g14
I00
sg32
I01
sg64
g1898
sg15
I01
sbsg15
I01
sg1996
g0
(g60
g2
Ntp2164
Rp2165
(dp2166
g14
I00
sg32
I00
sg64
I00
sg15
I00
sbsg17
S'/cvmfs/cms.cern.ch/slc6_amd64_gcc530/cms/cmssw/CMSSW_8_0_22/python/Geometry/CSCGeometryBuilder/idealForDigiCscGeometryDB_cff.py'
p2167
sg1997
g0
(g60
g2
Ntp2168
Rp2169
(dp2170
g14
I00
sg32
I01
sg64
I01
sg15
I00
sbsg1894
g0
(g74
g2
Ntp2171
Rp2172
(dp2173
g14
I00
sg32
I01
sg64
g1902
sg15
I01
sbsg1998
g0
(g60
g2
Ntp2174
Rp2175
(dp2176
g14
I00
sg32
I01
sg64
I00
sg15
I00
sbsg1995
g0
(g60
g2
Ntp2177
Rp2178
(dp2179
g14
I00
sg32
I01
sg64
I00
sg15
I00
sbsg16
I8
sg2000
g0
(g60
g2
Ntp2180
Rp2181
(dp2182
g14
I00
sg32
I01
sg64
I00
sg15
I00
sbsg34
S'idealForDigiCSCGeometry'
p2183
sg1999
g0
(g60
g2
Ntp2184
Rp2185
(dp2186
g14
I00
sg32
I01
sg64
I01
sg15
I00
sbsg1345
g0
(g60
g2
Ntp2187
Rp2188
(dp2189
g14
I00
sg32
I01
sg64
I00
sg15
I01
sbsg35
g1990
sbsI140068435832144
g0
(g7
g2
Ntp2190
Rp2191
(dp2192
g11
(lp2193
g979
ag1893
ag1345
ag1894
asg14
I00
sg979
g0
(g74
g2
Ntp2194
Rp2195
(dp2196
g14
I00
sg32
I01
sg64
g1898
sg15
I01
sbsg15
I01
sg1894
g0
(g74
g2
Ntp2197
Rp2198
(dp2199
g14
I00
sg32
I01
sg64
g1902
sg15
I01
sbsg17
S'/cvmfs/cms.cern.ch/slc6_amd64_gcc530/cms/cmssw/CMSSW_8_0_22/python/Geometry/DTGeometryBuilder/idealForDigiDtGeometryDB_cff.py'
p2200
sg16
I8
sg34
S'idealForDigiDTGeometry'
p2201
sg1893
g0
(g60
g2
Ntp2202
Rp2203
(dp2204
g14
I00
sg32
I01
sg64
I00
sg15
I00
sbsg1345
g0
(g60
g2
Ntp2205
Rp2206
(dp2207
g14
I00
sg32
I01
sg64
I00
sg15
I01
sbsg35
g1938
sbsI140068435536656
g496
sI140068435762128
g1391
sI140068435536912
g695
sI140068435565776
g290
sI140068435488016
g98
sI140068435419984
g1750
sI140068435537424
g585
sI140068435361360
g1981
sI140068435566288
g325
sI140068435537680
g714
sI140068435535248
g224
sI140068435788112
g0
(g7
g2
Ntp2208
Rp2209
(dp2210
g11
(lp2211
g1345
asg14
I00
sg15
I01
sg16
I40
sg17
g18
sg34
S'EcalPreshowerGeometryFromDBEP'
p2212
sg1345
g0
(g60
g2
Ntp2213
Rp2214
(dp2215
g14
I00
sg32
I01
sg64
I01
sg15
I01
sbsg35
g2212
sbsI140068435669520
g1384
sI140068435563664
g1662
sI140068435830160
g0
(g7
g2
Ntp2216
Rp2217
(dp2218
g11
(lp2219
g979
asg14
I00
sg979
g0
(g74
g2
Ntp2220
Rp2221
(dp2222
g14
I00
sg32
I01
sg64
g78
sg15
I00
sbsg15
I00
sg16
I40
sg17
g18
sg34
S'hcalDDDRecConstants'
p2223
sg35
S'HcalDDDRecConstantsESModule'
p2224
sbsI140068435486160
g1780
sI140068435535632
g742
sI140068435761552
g0
(g7
g2
Ntp2225
Rp2226
(dp2227
g11
(lp2228
g979
ag1893
ag1345
ag1894
asg14
I00
sg979
g0
(g74
g2
Ntp2229
Rp2230
(dp2231
g14
I00
sg32
I01
sg64
g78
sg15
I00
sbsg15
I00
sg1894
g0
(g74
g2
Ntp2232
Rp2233
(dp2234
g14
I00
sg32
I01
sg64
g78
sg15
I00
sbsg17
g18
sg16
I40
sg34
S'trackerGeometryDB'
p2235
sg1893
g0
(g60
g2
Ntp2236
Rp2237
(dp2238
g14
I00
sg32
I01
sg64
I00
sg15
I00
sbsg1345
g0
(g60
g2
Ntp2239
Rp2240
(dp2241
g14
I00
sg32
I01
sg64
I01
sg15
I00
sbsg35
g1910
sbsI140068435487184
g646
sI140068435761808
g0
(g7
g2
Ntp2242
Rp2243
(dp2244
g11
(lp2245
sg14
I00
sg15
I00
sg16
I40
sg17
g18
sg34
S'TrackerRecoGeometryESProducer'
p2246
sg35
g2246
sbsI140068435113296
g1773
sI140068435760080
g0
(g7
g2
Ntp2247
Rp2248
(dp2249
g11
(lp2250
g1995
aS'compatibiltyWith11'
p2251
asg14
I00
sg15
I00
sg16
I40
sg17
g18
sg1995
g0
(g60
g2
Ntp2252
Rp2253
(dp2254
g14
I00
sg32
I00
sg64
I00
sg15
I00
sbsg2251
g0
(g60
g2
Ntp2255
Rp2256
(dp2257
g14
I00
sg32
I00
sg64
I01
sg15
I00
sbsg34
S'RPCGeometryESModule'
p2258
sg35
g2258
sbsI140068435565328
g267
sI140068435791696
g1731
sI140068435535440
g484
sI140068435832784
g926
sI140068435562576
g734
sI140068435487248
g665
sI140068435562832
g604
sI140068435536144
g768
sI140068435534224
g231
sI140068435563088
g639
sI140068435534480
g91
ssg493
g484
sg512
g503
sg305
g537
sg1758
g1750
sg2258
g2248
sg2201
g2191
sg2143
g2140
sg2246
g2243
sg1813
g1773
sg1668
g1662
sg2129
g2126
sg2095
g2080
sg2137
g2131
sg73
g52
sg686
g688
sg705
g707
sg724
g726
sg732
g734
sg740
g742
sg759
g761
sg778
g780
sg2075
g2059
sg513
g515
sg2124
g2121
sS'_Process__aliases'
p2259
(dp2260
sg1788
g1780
sg2119
g2116
sg704
g695
sg723
g714
sg758
g749
sg777
g768
sg2235
g2226
sg684
g665
sg2101
g2098
sg2212
g2209
sg2223
g2217
sg2183
g2158
sS'_Process__subProcesses'
p2261
(lp2262
sg2110
g2103
sg222
g224
sg601
g592
sg463
g439
sg620
g611
sS'_Process__modifiers'
p2263
(tsS'_Process__filters'
p2264
(dp2265
g817
g804
sg143
g128
sg662
g646
sg889
g891
sg243
g231
sg1631
g1633
sg1788
g1780
sg257
g248
sg985
g987
sg704
g695
sg723
g714
sg758
g749
sg777
g768
sg684
g665
sg161
g150
sg841
g833
sg493
g484
sg512
g503
sg1758
g1750
sg601
g592
sg620
g611
sg1668
g1662
sg1867
g1869
sg1368
g1370
sg1808
g1802
ssS'_Process__esproducers'
p2266
(dp2267
g6
g9
sg2246
g2243
sg1955
g1957
sg1696
g1698
sg1972
g1974
sg2119
g2116
sg924
g926
sg2235
g2226
sg2110
g2103
sg2101
g2098
sg2212
g2209
sg2223
g2217
sg1990
g1992
sg2028
g2030
sg2036
g2038
sg2124
g2121
sg1729
g1731
sg2183
g2158
sg1340
g1342
sg2258
g2248
sg2201
g2191
sg2143
g2140
sg1938
g1940
sg1394
g1396
sg1888
g1890
sg2129
g2126
sg2095
g2080
sg974
g976
sg1389
g1391
sg2137
g2131
sg1921
g1923
sg2155
g2148
sg2075
g2059
ssS'_Process__partialschedules'
p2268
(dp2269
sg2155
g2148
sb.